; ModuleID = 'main.ll'
target datalayout = "e-p:64:64:64-i1:8:8-i8:8:8-i16:16:16-i32:32:32-i64:64:64-f32:32:32-f64:64:64-v64:64:64-v128:128:128-a0:0:64-s0:64:64-f80:128:128-n8:16:32:64-S128"
target triple = "x86_64-unknown-linux-gnu"

%"class.std::ios_base::Init" = type { i8 }
%struct._IO_FILE = type { i32, i8*, i8*, i8*, i8*, i8*, i8*, i8*, i8*, i8*, i8*, i8*, %struct._IO_marker*, %struct._IO_FILE*, i32, i32, i64, i16, i8, [1 x i8], i8*, i64, i8*, i8*, i8*, i8*, i64, i32, [20 x i8] }
%struct._IO_marker = type { %struct._IO_marker*, %struct._IO_FILE*, i32 }
%struct.Node = type { i32, i32 }
%struct.Edge = type { i32, i32 }
%"class.std::deque" = type { %"class.std::_Deque_base" }
%"class.std::_Deque_base" = type { %"struct.std::_Deque_base<int, std::allocator<int> >::_Deque_impl" }
%"struct.std::_Deque_base<int, std::allocator<int> >::_Deque_impl" = type { i32**, i64, %"struct.std::_Deque_iterator", %"struct.std::_Deque_iterator" }
%"struct.std::_Deque_iterator" = type { i32*, i32*, i32*, i32** }
%"class.std::allocator" = type { i8 }
%struct.pb_Parameters = type { i8*, i8** }
%struct.pb_TimerSet = type { i32, %struct.pb_async_time_marker_list*, i64, i64, [8 x %struct.pb_Timer], [8 x %struct.pb_SubTimerList*] }
%struct.pb_async_time_marker_list = type { i8*, i32, i8*, %struct.pb_async_time_marker_list* }
%struct.pb_Timer = type { i32, i64, i64 }
%struct.pb_SubTimerList = type { %struct.pb_SubTimer*, %struct.pb_SubTimer* }
%struct.pb_SubTimer = type { i8*, %struct.pb_Timer, %struct.pb_SubTimer* }
%"class.__gnu_cxx::new_allocator" = type { i8 }
%"class.std::allocator.0" = type { i8 }
%"class.__gnu_cxx::new_allocator.1" = type { i8 }
%struct.argparse = type { i32, i8**, i32, i8**, i8** }
%struct.timeval = type { i64, i64 }
%struct.timezone = type { i32, i32 }

@_ZStL8__ioinit = internal global %"class.std::ios_base::Init" zeroinitializer, align 1
@__dso_handle = external global i8
@no_of_nodes = global i32 0, align 4
@edge_list_size = global i32 0, align 4
@fp = global %struct._IO_FILE* null, align 8
@stderr = external global %struct._IO_FILE*
@.str = private unnamed_addr constant [30 x i8] c"Expecting one input filename\0A\00", align 1
@.str1 = private unnamed_addr constant [2 x i8] c"r\00", align 1
@.str2 = private unnamed_addr constant [26 x i8] c"Error Reading graph file\0A\00", align 1
@.str3 = private unnamed_addr constant [3 x i8] c"%d\00", align 1
@.str4 = private unnamed_addr constant [6 x i8] c"%d %d\00", align 1
@.str5 = private unnamed_addr constant [2 x i8] c"w\00", align 1
@.str6 = private unnamed_addr constant [4 x i8] c"%d\0A\00", align 1
@.str7 = private unnamed_addr constant [7 x i8] c"%d %d\0A\00", align 1
@llvm.global_ctors = appending global [1 x { i32, void ()* }] [{ i32, void ()* } { i32 65535, void ()* @_GLOBAL__I_a }]
@.str8 = private unnamed_addr constant [32 x i8] c"Expecting file name after '-o'\0A\00", align 1
@.str19 = private unnamed_addr constant [32 x i8] c"Expecting file name after '-i'\0A\00", align 1
@.str210 = private unnamed_addr constant [35 x i8] c"Unexpected command-line parameter\0A\00", align 1
@.str311 = private unnamed_addr constant [43 x i8] c"Ignoring attempt to start a running timer\0A\00", align 1
@.str412 = private unnamed_addr constant [32 x i8] c"Warning: Timer was not stopped\0A\00", align 1
@.str513 = private unnamed_addr constant [35 x i8] c"Warning: Subtimer was not stopped\0A\00", align 1
@.str614 = private unnamed_addr constant [54 x i8] c"Ignoring attempt to start running timer and subtimer\0A\00", align 1
@.str715 = private unnamed_addr constant [42 x i8] c"Ignoring attempt to stop a stopped timer\0A\00", align 1
@.str816 = private unnamed_addr constant [32 x i8] c"Warning: Timer was not running\0A\00", align 1
@.str9 = private unnamed_addr constant [35 x i8] c"Warning: Subtimer was not running\0A\00", align 1
@.str10 = private unnamed_addr constant [53 x i8] c"Ignoring attempt to stop stopped timer and subtimer\0A\00", align 1
@.str11 = private unnamed_addr constant [49 x i8] c"Elapsed time from a running timer is inaccurate\0A\00", align 1
@.str12 = private unnamed_addr constant [4 x i8] c"%s\00\00", align 1
@.str13 = private unnamed_addr constant [3 x i8] c"IO\00", align 1
@.str14 = private unnamed_addr constant [7 x i8] c"Kernel\00", align 1
@.str15 = private unnamed_addr constant [5 x i8] c"Copy\00", align 1
@.str16 = private unnamed_addr constant [7 x i8] c"Driver\00", align 1
@.str17 = private unnamed_addr constant [11 x i8] c"Copy Async\00", align 1
@.str18 = private unnamed_addr constant [8 x i8] c"Compute\00", align 1
@.str1917 = private unnamed_addr constant [10 x i8] c"%-*s: %f\0A\00", align 1
@.str20 = private unnamed_addr constant [12 x i8] c" -%-*s: %f\0A\00", align 1
@.str21 = private unnamed_addr constant [24 x i8] c"CPU/Kernel Overlap: %f\0A\00", align 1
@.str22 = private unnamed_addr constant [21 x i8] c"Timer Wall Time: %f\0A\00", align 1
@.str23 = private unnamed_addr constant [15 x i8] c"next_argument\0A\00", align 1
@.str24 = private unnamed_addr constant [17 x i8] c"delete_argument\0A\00", align 1

define internal void @__cxx_global_var_init() section ".text.startup" {
  call void @_ZNSt8ios_base4InitC1Ev(%"class.std::ios_base::Init"* @_ZStL8__ioinit)
  %1 = call i32 @__cxa_atexit(void (i8*)* bitcast (void (%"class.std::ios_base::Init"*)* @_ZNSt8ios_base4InitD1Ev to void (i8*)*), i8* getelementptr inbounds (%"class.std::ios_base::Init"* @_ZStL8__ioinit, i32 0, i32 0), i8* @__dso_handle) #1
  ret void
}

declare void @_ZNSt8ios_base4InitC1Ev(%"class.std::ios_base::Init"*) #0

declare void @_ZNSt8ios_base4InitD1Ev(%"class.std::ios_base::Init"*) #0

; Function Attrs: nounwind
declare i32 @__cxa_atexit(void (i8*)*, i8*, i8*) #1

; Function Attrs: uwtable
define void @_Z7BFS_CPUP4NodeP4EdgePiS3_i(%struct.Node* %h_graph_nodes, %struct.Edge* %h_graph_edges, i32* %color, i32* %h_cost, i32 %source) #2 {
  %1 = alloca %struct.Node*, align 8
  %2 = alloca %struct.Edge*, align 8
  %3 = alloca i32*, align 8
  %4 = alloca i32*, align 8
  %5 = alloca i32, align 4
  %wavefront = alloca %"class.std::deque", align 8
  %6 = alloca i8*
  %7 = alloca i32
  %index = alloca i32, align 4
  %i = alloca i32, align 4
  %id = alloca i32, align 4
  store %struct.Node* %h_graph_nodes, %struct.Node** %1, align 8
  store %struct.Edge* %h_graph_edges, %struct.Edge** %2, align 8
  store i32* %color, i32** %3, align 8
  store i32* %h_cost, i32** %4, align 8
  store i32 %source, i32* %5, align 4
  call void @_ZNSt5dequeIiSaIiEEC2Ev(%"class.std::deque"* %wavefront)
  invoke void @_ZNSt5dequeIiSaIiEE9push_backERKi(%"class.std::deque"* %wavefront, i32* %5)
          to label %8 unwind label %73

; <label>:8                                       ; preds = %0
  %9 = load i32* %5, align 4
  %10 = sext i32 %9 to i64
  %11 = load i32** %3, align 8
  %12 = getelementptr inbounds i32* %11, i64 %10
  store i32 16677218, i32* %12, align 4
  br label %13

; <label>:13                                      ; preds = %81, %8
  %14 = invoke zeroext i1 @_ZNKSt5dequeIiSaIiEE5emptyEv(%"class.std::deque"* %wavefront)
          to label %15 unwind label %73

; <label>:15                                      ; preds = %13
  %16 = xor i1 %14, true
  br i1 %16, label %17, label %86

; <label>:17                                      ; preds = %15
  %18 = invoke i32* @_ZNSt5dequeIiSaIiEE5frontEv(%"class.std::deque"* %wavefront)
          to label %19 unwind label %73

; <label>:19                                      ; preds = %17
  %20 = load i32* %18
  store i32 %20, i32* %index, align 4
  invoke void @_ZNSt5dequeIiSaIiEE9pop_frontEv(%"class.std::deque"* %wavefront)
          to label %21 unwind label %73

; <label>:21                                      ; preds = %19
  %22 = load i32* %index, align 4
  %23 = sext i32 %22 to i64
  %24 = load %struct.Node** %1, align 8
  %25 = getelementptr inbounds %struct.Node* %24, i64 %23
  %26 = getelementptr inbounds %struct.Node* %25, i32 0, i32 0
  %27 = load i32* %26, align 4
  store i32 %27, i32* %i, align 4
  br label %28

; <label>:28                                      ; preds = %78, %21
  %29 = load i32* %i, align 4
  %30 = load i32* %index, align 4
  %31 = sext i32 %30 to i64
  %32 = load %struct.Node** %1, align 8
  %33 = getelementptr inbounds %struct.Node* %32, i64 %31
  %34 = getelementptr inbounds %struct.Node* %33, i32 0, i32 1
  %35 = load i32* %34, align 4
  %36 = load i32* %index, align 4
  %37 = sext i32 %36 to i64
  %38 = load %struct.Node** %1, align 8
  %39 = getelementptr inbounds %struct.Node* %38, i64 %37
  %40 = getelementptr inbounds %struct.Node* %39, i32 0, i32 0
  %41 = load i32* %40, align 4
  %42 = add nsw i32 %35, %41
  %43 = icmp slt i32 %29, %42
  br i1 %43, label %44, label %81

; <label>:44                                      ; preds = %28
  %45 = load i32* %i, align 4
  %46 = sext i32 %45 to i64
  %47 = load %struct.Edge** %2, align 8
  %48 = getelementptr inbounds %struct.Edge* %47, i64 %46
  %49 = getelementptr inbounds %struct.Edge* %48, i32 0, i32 0
  %50 = load i32* %49, align 4
  store i32 %50, i32* %id, align 4
  %51 = load i32* %id, align 4
  %52 = sext i32 %51 to i64
  %53 = load i32** %3, align 8
  %54 = getelementptr inbounds i32* %53, i64 %52
  %55 = load i32* %54, align 4
  %56 = icmp eq i32 %55, 16677217
  br i1 %56, label %57, label %77

; <label>:57                                      ; preds = %44
  %58 = load i32* %index, align 4
  %59 = sext i32 %58 to i64
  %60 = load i32** %4, align 8
  %61 = getelementptr inbounds i32* %60, i64 %59
  %62 = load i32* %61, align 4
  %63 = add nsw i32 %62, 1
  %64 = load i32* %id, align 4
  %65 = sext i32 %64 to i64
  %66 = load i32** %4, align 8
  %67 = getelementptr inbounds i32* %66, i64 %65
  store i32 %63, i32* %67, align 4
  invoke void @_ZNSt5dequeIiSaIiEE9push_backERKi(%"class.std::deque"* %wavefront, i32* %id)
          to label %68 unwind label %73

; <label>:68                                      ; preds = %57
  %69 = load i32* %id, align 4
  %70 = sext i32 %69 to i64
  %71 = load i32** %3, align 8
  %72 = getelementptr inbounds i32* %71, i64 %70
  store i32 16677218, i32* %72, align 4
  br label %77

; <label>:73                                      ; preds = %57, %19, %17, %13, %0
  %74 = landingpad { i8*, i32 } personality i8* bitcast (i32 (...)* @__gxx_personality_v0 to i8*)
          cleanup
  %75 = extractvalue { i8*, i32 } %74, 0
  store i8* %75, i8** %6
  %76 = extractvalue { i8*, i32 } %74, 1
  store i32 %76, i32* %7
  invoke void @_ZNSt5dequeIiSaIiEED2Ev(%"class.std::deque"* %wavefront)
          to label %87 unwind label %93

; <label>:77                                      ; preds = %68, %44
  br label %78

; <label>:78                                      ; preds = %77
  %79 = load i32* %i, align 4
  %80 = add nsw i32 %79, 1
  store i32 %80, i32* %i, align 4
  br label %28

; <label>:81                                      ; preds = %28
  %82 = load i32* %index, align 4
  %83 = sext i32 %82 to i64
  %84 = load i32** %3, align 8
  %85 = getelementptr inbounds i32* %84, i64 %83
  store i32 16677221, i32* %85, align 4
  br label %13

; <label>:86                                      ; preds = %15
  call void @_ZNSt5dequeIiSaIiEED2Ev(%"class.std::deque"* %wavefront)
  ret void

; <label>:87                                      ; preds = %73
  br label %88

; <label>:88                                      ; preds = %87
  %89 = load i8** %6
  %90 = load i32* %7
  %91 = insertvalue { i8*, i32 } undef, i8* %89, 0
  %92 = insertvalue { i8*, i32 } %91, i32 %90, 1
  resume { i8*, i32 } %92

; <label>:93                                      ; preds = %73
  %94 = landingpad { i8*, i32 } personality i8* bitcast (i32 (...)* @__gxx_personality_v0 to i8*)
          catch i8* null
  %95 = extractvalue { i8*, i32 } %94, 0
  call void @__clang_call_terminate(i8* %95) #13
  unreachable
}

; Function Attrs: uwtable
define linkonce_odr void @_ZNSt5dequeIiSaIiEEC2Ev(%"class.std::deque"* %this) unnamed_addr #2 align 2 {
  %1 = alloca %"class.std::deque"*, align 8
  store %"class.std::deque"* %this, %"class.std::deque"** %1, align 8
  %2 = load %"class.std::deque"** %1
  %3 = bitcast %"class.std::deque"* %2 to %"class.std::_Deque_base"*
  call void @_ZNSt11_Deque_baseIiSaIiEEC2Ev(%"class.std::_Deque_base"* %3)
  ret void
}

; Function Attrs: uwtable
define linkonce_odr void @_ZNSt5dequeIiSaIiEE9push_backERKi(%"class.std::deque"* %this, i32* %__x) #2 align 2 {
  %1 = alloca %"class.std::deque"*, align 8
  %2 = alloca i32*, align 8
  store %"class.std::deque"* %this, %"class.std::deque"** %1, align 8
  store i32* %__x, i32** %2, align 8
  %3 = load %"class.std::deque"** %1
  %4 = bitcast %"class.std::deque"* %3 to %"class.std::_Deque_base"*
  %5 = getelementptr inbounds %"class.std::_Deque_base"* %4, i32 0, i32 0
  %6 = getelementptr inbounds %"struct.std::_Deque_base<int, std::allocator<int> >::_Deque_impl"* %5, i32 0, i32 3
  %7 = getelementptr inbounds %"struct.std::_Deque_iterator"* %6, i32 0, i32 0
  %8 = load i32** %7, align 8
  %9 = bitcast %"class.std::deque"* %3 to %"class.std::_Deque_base"*
  %10 = getelementptr inbounds %"class.std::_Deque_base"* %9, i32 0, i32 0
  %11 = getelementptr inbounds %"struct.std::_Deque_base<int, std::allocator<int> >::_Deque_impl"* %10, i32 0, i32 3
  %12 = getelementptr inbounds %"struct.std::_Deque_iterator"* %11, i32 0, i32 2
  %13 = load i32** %12, align 8
  %14 = getelementptr inbounds i32* %13, i64 -1
  %15 = icmp ne i32* %8, %14
  br i1 %15, label %16, label %32

; <label>:16                                      ; preds = %0
  %17 = bitcast %"class.std::deque"* %3 to %"class.std::_Deque_base"*
  %18 = getelementptr inbounds %"class.std::_Deque_base"* %17, i32 0, i32 0
  %19 = bitcast %"struct.std::_Deque_base<int, std::allocator<int> >::_Deque_impl"* %18 to %"class.std::allocator"*
  %20 = bitcast %"class.std::deque"* %3 to %"class.std::_Deque_base"*
  %21 = getelementptr inbounds %"class.std::_Deque_base"* %20, i32 0, i32 0
  %22 = getelementptr inbounds %"struct.std::_Deque_base<int, std::allocator<int> >::_Deque_impl"* %21, i32 0, i32 3
  %23 = getelementptr inbounds %"struct.std::_Deque_iterator"* %22, i32 0, i32 0
  %24 = load i32** %23, align 8
  %25 = load i32** %2, align 8
  call void @_ZN9__gnu_cxx14__alloc_traitsISaIiEE9constructIiEEvRS1_PiRKT_(%"class.std::allocator"* %19, i32* %24, i32* %25)
  %26 = bitcast %"class.std::deque"* %3 to %"class.std::_Deque_base"*
  %27 = getelementptr inbounds %"class.std::_Deque_base"* %26, i32 0, i32 0
  %28 = getelementptr inbounds %"struct.std::_Deque_base<int, std::allocator<int> >::_Deque_impl"* %27, i32 0, i32 3
  %29 = getelementptr inbounds %"struct.std::_Deque_iterator"* %28, i32 0, i32 0
  %30 = load i32** %29, align 8
  %31 = getelementptr inbounds i32* %30, i32 1
  store i32* %31, i32** %29, align 8
  br label %34

; <label>:32                                      ; preds = %0
  %33 = load i32** %2, align 8
  call void @_ZNSt5dequeIiSaIiEE16_M_push_back_auxERKi(%"class.std::deque"* %3, i32* %33)
  br label %34

; <label>:34                                      ; preds = %32, %16
  ret void
}

declare i32 @__gxx_personality_v0(...)

; Function Attrs: uwtable
define linkonce_odr zeroext i1 @_ZNKSt5dequeIiSaIiEE5emptyEv(%"class.std::deque"* %this) #2 align 2 {
  %1 = alloca %"class.std::deque"*, align 8
  store %"class.std::deque"* %this, %"class.std::deque"** %1, align 8
  %2 = load %"class.std::deque"** %1
  %3 = bitcast %"class.std::deque"* %2 to %"class.std::_Deque_base"*
  %4 = getelementptr inbounds %"class.std::_Deque_base"* %3, i32 0, i32 0
  %5 = getelementptr inbounds %"struct.std::_Deque_base<int, std::allocator<int> >::_Deque_impl"* %4, i32 0, i32 3
  %6 = bitcast %"class.std::deque"* %2 to %"class.std::_Deque_base"*
  %7 = getelementptr inbounds %"class.std::_Deque_base"* %6, i32 0, i32 0
  %8 = getelementptr inbounds %"struct.std::_Deque_base<int, std::allocator<int> >::_Deque_impl"* %7, i32 0, i32 2
  %9 = call zeroext i1 @_ZSteqIiRiPiEbRKSt15_Deque_iteratorIT_T0_T1_ES8_(%"struct.std::_Deque_iterator"* %5, %"struct.std::_Deque_iterator"* %8)
  ret i1 %9
}

; Function Attrs: uwtable
define linkonce_odr i32* @_ZNSt5dequeIiSaIiEE5frontEv(%"class.std::deque"* %this) #2 align 2 {
  %1 = alloca %"class.std::deque"*, align 8
  %2 = alloca %"struct.std::_Deque_iterator", align 8
  store %"class.std::deque"* %this, %"class.std::deque"** %1, align 8
  %3 = load %"class.std::deque"** %1
  call void @_ZNSt5dequeIiSaIiEE5beginEv(%"struct.std::_Deque_iterator"* sret %2, %"class.std::deque"* %3)
  %4 = call i32* @_ZNKSt15_Deque_iteratorIiRiPiEdeEv(%"struct.std::_Deque_iterator"* %2)
  ret i32* %4
}

; Function Attrs: uwtable
define linkonce_odr void @_ZNSt5dequeIiSaIiEE9pop_frontEv(%"class.std::deque"* %this) #2 align 2 {
  %1 = alloca %"class.std::deque"*, align 8
  store %"class.std::deque"* %this, %"class.std::deque"** %1, align 8
  %2 = load %"class.std::deque"** %1
  %3 = bitcast %"class.std::deque"* %2 to %"class.std::_Deque_base"*
  %4 = getelementptr inbounds %"class.std::_Deque_base"* %3, i32 0, i32 0
  %5 = getelementptr inbounds %"struct.std::_Deque_base<int, std::allocator<int> >::_Deque_impl"* %4, i32 0, i32 2
  %6 = getelementptr inbounds %"struct.std::_Deque_iterator"* %5, i32 0, i32 0
  %7 = load i32** %6, align 8
  %8 = bitcast %"class.std::deque"* %2 to %"class.std::_Deque_base"*
  %9 = getelementptr inbounds %"class.std::_Deque_base"* %8, i32 0, i32 0
  %10 = getelementptr inbounds %"struct.std::_Deque_base<int, std::allocator<int> >::_Deque_impl"* %9, i32 0, i32 2
  %11 = getelementptr inbounds %"struct.std::_Deque_iterator"* %10, i32 0, i32 2
  %12 = load i32** %11, align 8
  %13 = getelementptr inbounds i32* %12, i64 -1
  %14 = icmp ne i32* %7, %13
  br i1 %14, label %15, label %30

; <label>:15                                      ; preds = %0
  %16 = bitcast %"class.std::deque"* %2 to %"class.std::_Deque_base"*
  %17 = getelementptr inbounds %"class.std::_Deque_base"* %16, i32 0, i32 0
  %18 = bitcast %"struct.std::_Deque_base<int, std::allocator<int> >::_Deque_impl"* %17 to %"class.std::allocator"*
  %19 = bitcast %"class.std::deque"* %2 to %"class.std::_Deque_base"*
  %20 = getelementptr inbounds %"class.std::_Deque_base"* %19, i32 0, i32 0
  %21 = getelementptr inbounds %"struct.std::_Deque_base<int, std::allocator<int> >::_Deque_impl"* %20, i32 0, i32 2
  %22 = getelementptr inbounds %"struct.std::_Deque_iterator"* %21, i32 0, i32 0
  %23 = load i32** %22, align 8
  call void @_ZN9__gnu_cxx14__alloc_traitsISaIiEE7destroyERS1_Pi(%"class.std::allocator"* %18, i32* %23)
  %24 = bitcast %"class.std::deque"* %2 to %"class.std::_Deque_base"*
  %25 = getelementptr inbounds %"class.std::_Deque_base"* %24, i32 0, i32 0
  %26 = getelementptr inbounds %"struct.std::_Deque_base<int, std::allocator<int> >::_Deque_impl"* %25, i32 0, i32 2
  %27 = getelementptr inbounds %"struct.std::_Deque_iterator"* %26, i32 0, i32 0
  %28 = load i32** %27, align 8
  %29 = getelementptr inbounds i32* %28, i32 1
  store i32* %29, i32** %27, align 8
  br label %31

; <label>:30                                      ; preds = %0
  call void @_ZNSt5dequeIiSaIiEE16_M_pop_front_auxEv(%"class.std::deque"* %2)
  br label %31

; <label>:31                                      ; preds = %30, %15
  ret void
}

; Function Attrs: uwtable
define linkonce_odr void @_ZNSt5dequeIiSaIiEED2Ev(%"class.std::deque"* %this) unnamed_addr #2 align 2 {
  %1 = alloca %"class.std::deque"*, align 8
  %2 = alloca %"struct.std::_Deque_iterator", align 8
  %3 = alloca i8*
  %4 = alloca i32
  %5 = alloca %"struct.std::_Deque_iterator", align 8
  store %"class.std::deque"* %this, %"class.std::deque"** %1, align 8
  %6 = load %"class.std::deque"** %1
  invoke void @_ZNSt5dequeIiSaIiEE5beginEv(%"struct.std::_Deque_iterator"* sret %2, %"class.std::deque"* %6)
          to label %7 unwind label %14

; <label>:7                                       ; preds = %0
  invoke void @_ZNSt5dequeIiSaIiEE3endEv(%"struct.std::_Deque_iterator"* sret %5, %"class.std::deque"* %6)
          to label %8 unwind label %14

; <label>:8                                       ; preds = %7
  %9 = bitcast %"class.std::deque"* %6 to %"class.std::_Deque_base"*
  %10 = invoke %"class.std::allocator"* @_ZNSt11_Deque_baseIiSaIiEE19_M_get_Tp_allocatorEv(%"class.std::_Deque_base"* %9)
          to label %11 unwind label %14

; <label>:11                                      ; preds = %8
  invoke void @_ZNSt5dequeIiSaIiEE15_M_destroy_dataESt15_Deque_iteratorIiRiPiES5_RKS0_(%"class.std::deque"* %6, %"struct.std::_Deque_iterator"* %2, %"struct.std::_Deque_iterator"* %5, %"class.std::allocator"* %10)
          to label %12 unwind label %14

; <label>:12                                      ; preds = %11
  %13 = bitcast %"class.std::deque"* %6 to %"class.std::_Deque_base"*
  call void @_ZNSt11_Deque_baseIiSaIiEED2Ev(%"class.std::_Deque_base"* %13)
  ret void

; <label>:14                                      ; preds = %11, %8, %7, %0
  %15 = landingpad { i8*, i32 } personality i8* bitcast (i32 (...)* @__gxx_personality_v0 to i8*)
          cleanup
  %16 = extractvalue { i8*, i32 } %15, 0
  store i8* %16, i8** %3
  %17 = extractvalue { i8*, i32 } %15, 1
  store i32 %17, i32* %4
  %18 = bitcast %"class.std::deque"* %6 to %"class.std::_Deque_base"*
  invoke void @_ZNSt11_Deque_baseIiSaIiEED2Ev(%"class.std::_Deque_base"* %18)
          to label %19 unwind label %25

; <label>:19                                      ; preds = %14
  br label %20

; <label>:20                                      ; preds = %19
  %21 = load i8** %3
  %22 = load i32* %4
  %23 = insertvalue { i8*, i32 } undef, i8* %21, 0
  %24 = insertvalue { i8*, i32 } %23, i32 %22, 1
  resume { i8*, i32 } %24

; <label>:25                                      ; preds = %14
  %26 = landingpad { i8*, i32 } personality i8* bitcast (i32 (...)* @__gxx_personality_v0 to i8*)
          catch i8* null
  %27 = extractvalue { i8*, i32 } %26, 0
  call void @__clang_call_terminate(i8* %27) #13
  unreachable
}

; Function Attrs: noinline noreturn nounwind
define linkonce_odr hidden void @__clang_call_terminate(i8*) #3 {
  %2 = call i8* @__cxa_begin_catch(i8* %0) #1
  call void @_ZSt9terminatev() #13
  unreachable
}

declare i8* @__cxa_begin_catch(i8*)

declare void @_ZSt9terminatev()

; Function Attrs: uwtable
define i32 @main(i32 %argc, i8** %argv) #2 {
  %1 = alloca i32, align 4
  %2 = alloca i8**, align 8
  store i32 %argc, i32* %1, align 4
  store i8** %argv, i8*** %2, align 8
  store i32 0, i32* @no_of_nodes, align 4
  store i32 0, i32* @edge_list_size, align 4
  %3 = load i32* %1, align 4
  %4 = load i8*** %2, align 8
  call void @_Z6runCPUiPPc(i32 %3, i8** %4)
  ret i32 0
}

; Function Attrs: uwtable
define void @_Z6runCPUiPPc(i32 %argc, i8** %argv) #2 {
  %1 = alloca i32, align 4
  %2 = alloca i8**, align 8
  %params = alloca %struct.pb_Parameters*, align 8
  %timers = alloca %struct.pb_TimerSet, align 8
  %source = alloca i32, align 4
  %h_graph_nodes = alloca %struct.Node*, align 8
  %color = alloca i32*, align 8
  %start = alloca i32, align 4
  %edgeno = alloca i32, align 4
  %i = alloca i32, align 4
  %id = alloca i32, align 4
  %cost = alloca i32, align 4
  %h_graph_edges = alloca %struct.Edge*, align 8
  %i1 = alloca i32, align 4
  %h_cost = alloca i32*, align 8
  %i2 = alloca i32, align 4
  %cpu_timer = alloca i32, align 4
  %fp = alloca %struct._IO_FILE*, align 8
  %i3 = alloca i32, align 4
  store i32 %argc, i32* %1, align 4
  store i8** %argv, i8*** %2, align 8
  call void @pb_InitializeTimerSet(%struct.pb_TimerSet* %timers)
  %3 = load i8*** %2, align 8
  %4 = call %struct.pb_Parameters* @pb_ReadParameters(i32* %1, i8** %3)
  store %struct.pb_Parameters* %4, %struct.pb_Parameters** %params, align 8
  %5 = load %struct.pb_Parameters** %params, align 8
  %6 = getelementptr inbounds %struct.pb_Parameters* %5, i32 0, i32 1
  %7 = load i8*** %6, align 8
  %8 = getelementptr inbounds i8** %7, i64 0
  %9 = load i8** %8, align 8
  %10 = icmp eq i8* %9, null
  br i1 %10, label %18, label %11

; <label>:11                                      ; preds = %0
  %12 = load %struct.pb_Parameters** %params, align 8
  %13 = getelementptr inbounds %struct.pb_Parameters* %12, i32 0, i32 1
  %14 = load i8*** %13, align 8
  %15 = getelementptr inbounds i8** %14, i64 1
  %16 = load i8** %15, align 8
  %17 = icmp ne i8* %16, null
  br i1 %17, label %18, label %21

; <label>:18                                      ; preds = %11, %0
  %19 = load %struct._IO_FILE** @stderr, align 8
  %20 = call i32 (%struct._IO_FILE*, i8*, ...)* @fprintf(%struct._IO_FILE* %19, i8* getelementptr inbounds ([30 x i8]* @.str, i32 0, i32 0))
  call void @exit(i32 -1) #13
  unreachable

; <label>:21                                      ; preds = %11
  call void @pb_SwitchToTimer(%struct.pb_TimerSet* %timers, i32 1)
  %22 = load %struct.pb_Parameters** %params, align 8
  %23 = getelementptr inbounds %struct.pb_Parameters* %22, i32 0, i32 1
  %24 = load i8*** %23, align 8
  %25 = getelementptr inbounds i8** %24, i64 0
  %26 = load i8** %25, align 8
  %27 = call %struct._IO_FILE* @fopen(i8* %26, i8* getelementptr inbounds ([2 x i8]* @.str1, i32 0, i32 0))
  store %struct._IO_FILE* %27, %struct._IO_FILE** @fp, align 8
  %28 = load %struct._IO_FILE** @fp, align 8
  %29 = icmp ne %struct._IO_FILE* %28, null
  br i1 %29, label %32, label %30

; <label>:30                                      ; preds = %21
  %31 = call i32 (i8*, ...)* @printf(i8* getelementptr inbounds ([26 x i8]* @.str2, i32 0, i32 0))
  br label %180

; <label>:32                                      ; preds = %21
  %33 = load %struct._IO_FILE** @fp, align 8
  %34 = call i32 (%struct._IO_FILE*, i8*, ...)* @fscanf(%struct._IO_FILE* %33, i8* getelementptr inbounds ([3 x i8]* @.str3, i32 0, i32 0), i32* @no_of_nodes)
  %35 = load i32* @no_of_nodes, align 4
  %36 = sext i32 %35 to i64
  %37 = mul i64 8, %36
  %38 = call noalias i8* @malloc(i64 %37) #1
  %39 = bitcast i8* %38 to %struct.Node*
  store %struct.Node* %39, %struct.Node** %h_graph_nodes, align 8
  %40 = load i32* @no_of_nodes, align 4
  %41 = sext i32 %40 to i64
  %42 = mul i64 4, %41
  %43 = call noalias i8* @malloc(i64 %42) #1
  %44 = bitcast i8* %43 to i32*
  store i32* %44, i32** %color, align 8
  store i32 0, i32* %i, align 4
  br label %45

; <label>:45                                      ; preds = %68, %32
  %46 = load i32* %i, align 4
  %47 = load i32* @no_of_nodes, align 4
  %48 = icmp ult i32 %46, %47
  br i1 %48, label %49, label %71

; <label>:49                                      ; preds = %45
  %50 = load %struct._IO_FILE** @fp, align 8
  %51 = call i32 (%struct._IO_FILE*, i8*, ...)* @fscanf(%struct._IO_FILE* %50, i8* getelementptr inbounds ([6 x i8]* @.str4, i32 0, i32 0), i32* %start, i32* %edgeno)
  %52 = load i32* %start, align 4
  %53 = load i32* %i, align 4
  %54 = zext i32 %53 to i64
  %55 = load %struct.Node** %h_graph_nodes, align 8
  %56 = getelementptr inbounds %struct.Node* %55, i64 %54
  %57 = getelementptr inbounds %struct.Node* %56, i32 0, i32 0
  store i32 %52, i32* %57, align 4
  %58 = load i32* %edgeno, align 4
  %59 = load i32* %i, align 4
  %60 = zext i32 %59 to i64
  %61 = load %struct.Node** %h_graph_nodes, align 8
  %62 = getelementptr inbounds %struct.Node* %61, i64 %60
  %63 = getelementptr inbounds %struct.Node* %62, i32 0, i32 1
  store i32 %58, i32* %63, align 4
  %64 = load i32* %i, align 4
  %65 = zext i32 %64 to i64
  %66 = load i32** %color, align 8
  %67 = getelementptr inbounds i32* %66, i64 %65
  store i32 16677217, i32* %67, align 4
  br label %68

; <label>:68                                      ; preds = %49
  %69 = load i32* %i, align 4
  %70 = add i32 %69, 1
  store i32 %70, i32* %i, align 4
  br label %45

; <label>:71                                      ; preds = %45
  %72 = load %struct._IO_FILE** @fp, align 8
  %73 = call i32 (%struct._IO_FILE*, i8*, ...)* @fscanf(%struct._IO_FILE* %72, i8* getelementptr inbounds ([3 x i8]* @.str3, i32 0, i32 0), i32* %source)
  %74 = load %struct._IO_FILE** @fp, align 8
  %75 = call i32 (%struct._IO_FILE*, i8*, ...)* @fscanf(%struct._IO_FILE* %74, i8* getelementptr inbounds ([3 x i8]* @.str3, i32 0, i32 0), i32* @edge_list_size)
  %76 = load i32* @edge_list_size, align 4
  %77 = sext i32 %76 to i64
  %78 = mul i64 8, %77
  %79 = call noalias i8* @malloc(i64 %78) #1
  %80 = bitcast i8* %79 to %struct.Edge*
  store %struct.Edge* %80, %struct.Edge** %h_graph_edges, align 8
  store i32 0, i32* %i1, align 4
  br label %81

; <label>:81                                      ; preds = %102, %71
  %82 = load i32* %i1, align 4
  %83 = load i32* @edge_list_size, align 4
  %84 = icmp slt i32 %82, %83
  br i1 %84, label %85, label %105

; <label>:85                                      ; preds = %81
  %86 = load %struct._IO_FILE** @fp, align 8
  %87 = call i32 (%struct._IO_FILE*, i8*, ...)* @fscanf(%struct._IO_FILE* %86, i8* getelementptr inbounds ([3 x i8]* @.str3, i32 0, i32 0), i32* %id)
  %88 = load %struct._IO_FILE** @fp, align 8
  %89 = call i32 (%struct._IO_FILE*, i8*, ...)* @fscanf(%struct._IO_FILE* %88, i8* getelementptr inbounds ([3 x i8]* @.str3, i32 0, i32 0), i32* %cost)
  %90 = load i32* %id, align 4
  %91 = load i32* %i1, align 4
  %92 = sext i32 %91 to i64
  %93 = load %struct.Edge** %h_graph_edges, align 8
  %94 = getelementptr inbounds %struct.Edge* %93, i64 %92
  %95 = getelementptr inbounds %struct.Edge* %94, i32 0, i32 0
  store i32 %90, i32* %95, align 4
  %96 = load i32* %cost, align 4
  %97 = load i32* %i1, align 4
  %98 = sext i32 %97 to i64
  %99 = load %struct.Edge** %h_graph_edges, align 8
  %100 = getelementptr inbounds %struct.Edge* %99, i64 %98
  %101 = getelementptr inbounds %struct.Edge* %100, i32 0, i32 1
  store i32 %96, i32* %101, align 4
  br label %102

; <label>:102                                     ; preds = %85
  %103 = load i32* %i1, align 4
  %104 = add nsw i32 %103, 1
  store i32 %104, i32* %i1, align 4
  br label %81

; <label>:105                                     ; preds = %81
  %106 = load %struct._IO_FILE** @fp, align 8
  %107 = icmp ne %struct._IO_FILE* %106, null
  br i1 %107, label %108, label %111

; <label>:108                                     ; preds = %105
  %109 = load %struct._IO_FILE** @fp, align 8
  %110 = call i32 @fclose(%struct._IO_FILE* %109)
  br label %111

; <label>:111                                     ; preds = %108, %105
  %112 = load i32* @no_of_nodes, align 4
  %113 = sext i32 %112 to i64
  %114 = mul i64 4, %113
  %115 = call noalias i8* @malloc(i64 %114) #1
  %116 = bitcast i8* %115 to i32*
  store i32* %116, i32** %h_cost, align 8
  store i32 0, i32* %i2, align 4
  br label %117

; <label>:117                                     ; preds = %126, %111
  %118 = load i32* %i2, align 4
  %119 = load i32* @no_of_nodes, align 4
  %120 = icmp slt i32 %118, %119
  br i1 %120, label %121, label %129

; <label>:121                                     ; preds = %117
  %122 = load i32* %i2, align 4
  %123 = sext i32 %122 to i64
  %124 = load i32** %h_cost, align 8
  %125 = getelementptr inbounds i32* %124, i64 %123
  store i32 2147483647, i32* %125, align 4
  br label %126

; <label>:126                                     ; preds = %121
  %127 = load i32* %i2, align 4
  %128 = add nsw i32 %127, 1
  store i32 %128, i32* %i2, align 4
  br label %117

; <label>:129                                     ; preds = %117
  %130 = load i32* %source, align 4
  %131 = sext i32 %130 to i64
  %132 = load i32** %h_cost, align 8
  %133 = getelementptr inbounds i32* %132, i64 %131
  store i32 0, i32* %133, align 4
  store i32 0, i32* %cpu_timer, align 4
  call void @pb_SwitchToTimer(%struct.pb_TimerSet* %timers, i32 6)
  %134 = load %struct.Node** %h_graph_nodes, align 8
  %135 = load %struct.Edge** %h_graph_edges, align 8
  %136 = load i32** %color, align 8
  %137 = load i32** %h_cost, align 8
  %138 = load i32* %source, align 4
  call void @_Z7BFS_CPUP4NodeP4EdgePiS3_i(%struct.Node* %134, %struct.Edge* %135, i32* %136, i32* %137, i32 %138)
  call void @pb_SwitchToTimer(%struct.pb_TimerSet* %timers, i32 1)
  %139 = load %struct.pb_Parameters** %params, align 8
  %140 = getelementptr inbounds %struct.pb_Parameters* %139, i32 0, i32 0
  %141 = load i8** %140, align 8
  %142 = icmp ne i8* %141, null
  br i1 %142, label %143, label %170

; <label>:143                                     ; preds = %129
  %144 = load %struct.pb_Parameters** %params, align 8
  %145 = getelementptr inbounds %struct.pb_Parameters* %144, i32 0, i32 0
  %146 = load i8** %145, align 8
  %147 = call %struct._IO_FILE* @fopen(i8* %146, i8* getelementptr inbounds ([2 x i8]* @.str5, i32 0, i32 0))
  store %struct._IO_FILE* %147, %struct._IO_FILE** %fp, align 8
  %148 = load %struct._IO_FILE** %fp, align 8
  %149 = load i32* @no_of_nodes, align 4
  %150 = call i32 (%struct._IO_FILE*, i8*, ...)* @fprintf(%struct._IO_FILE* %148, i8* getelementptr inbounds ([4 x i8]* @.str6, i32 0, i32 0), i32 %149)
  store i32 0, i32* %i3, align 4
  br label %151

; <label>:151                                     ; preds = %164, %143
  %152 = load i32* %i3, align 4
  %153 = load i32* @no_of_nodes, align 4
  %154 = icmp slt i32 %152, %153
  br i1 %154, label %155, label %167

; <label>:155                                     ; preds = %151
  %156 = load %struct._IO_FILE** %fp, align 8
  %157 = load i32* %i3, align 4
  %158 = load i32* %i3, align 4
  %159 = sext i32 %158 to i64
  %160 = load i32** %h_cost, align 8
  %161 = getelementptr inbounds i32* %160, i64 %159
  %162 = load i32* %161, align 4
  %163 = call i32 (%struct._IO_FILE*, i8*, ...)* @fprintf(%struct._IO_FILE* %156, i8* getelementptr inbounds ([7 x i8]* @.str7, i32 0, i32 0), i32 %157, i32 %162)
  br label %164

; <label>:164                                     ; preds = %155
  %165 = load i32* %i3, align 4
  %166 = add nsw i32 %165, 1
  store i32 %166, i32* %i3, align 4
  br label %151

; <label>:167                                     ; preds = %151
  %168 = load %struct._IO_FILE** %fp, align 8
  %169 = call i32 @fclose(%struct._IO_FILE* %168)
  br label %170

; <label>:170                                     ; preds = %167, %129
  call void @pb_SwitchToTimer(%struct.pb_TimerSet* %timers, i32 6)
  %171 = load %struct.Node** %h_graph_nodes, align 8
  %172 = bitcast %struct.Node* %171 to i8*
  call void @free(i8* %172) #1
  %173 = load %struct.Edge** %h_graph_edges, align 8
  %174 = bitcast %struct.Edge* %173 to i8*
  call void @free(i8* %174) #1
  %175 = load i32** %color, align 8
  %176 = bitcast i32* %175 to i8*
  call void @free(i8* %176) #1
  %177 = load i32** %h_cost, align 8
  %178 = bitcast i32* %177 to i8*
  call void @free(i8* %178) #1
  call void @pb_SwitchToTimer(%struct.pb_TimerSet* %timers, i32 0)
  call void @pb_PrintTimerSet(%struct.pb_TimerSet* %timers)
  %179 = load %struct.pb_Parameters** %params, align 8
  call void @pb_FreeParameters(%struct.pb_Parameters* %179)
  br label %180

; <label>:180                                     ; preds = %170, %30
  ret void
}

declare i32 @fprintf(%struct._IO_FILE*, i8*, ...) #0

; Function Attrs: noreturn nounwind
declare void @exit(i32) #4

declare %struct._IO_FILE* @fopen(i8*, i8*) #0

declare i32 @printf(i8*, ...) #0

declare i32 @fscanf(%struct._IO_FILE*, i8*, ...) #0

; Function Attrs: nounwind
declare noalias i8* @malloc(i64) #5

declare i32 @fclose(%struct._IO_FILE*) #0

; Function Attrs: nounwind
declare void @free(i8*) #5

; Function Attrs: uwtable
define linkonce_odr void @_ZN9__gnu_cxx14__alloc_traitsISaIiEE7destroyERS1_Pi(%"class.std::allocator"* %__a, i32* %__p) #2 align 2 {
  %1 = alloca %"class.std::allocator"*, align 8
  %2 = alloca i32*, align 8
  store %"class.std::allocator"* %__a, %"class.std::allocator"** %1, align 8
  store i32* %__p, i32** %2, align 8
  %3 = load %"class.std::allocator"** %1, align 8
  %4 = bitcast %"class.std::allocator"* %3 to %"class.__gnu_cxx::new_allocator"*
  %5 = load i32** %2, align 8
  call void @_ZN9__gnu_cxx13new_allocatorIiE7destroyEPi(%"class.__gnu_cxx::new_allocator"* %4, i32* %5)
  ret void
}

; Function Attrs: uwtable
define linkonce_odr void @_ZNSt5dequeIiSaIiEE16_M_pop_front_auxEv(%"class.std::deque"* %this) #2 align 2 {
  %1 = alloca %"class.std::deque"*, align 8
  store %"class.std::deque"* %this, %"class.std::deque"** %1, align 8
  %2 = load %"class.std::deque"** %1
  %3 = bitcast %"class.std::deque"* %2 to %"class.std::_Deque_base"*
  %4 = call %"class.std::allocator"* @_ZNSt11_Deque_baseIiSaIiEE19_M_get_Tp_allocatorEv(%"class.std::_Deque_base"* %3)
  %5 = bitcast %"class.std::deque"* %2 to %"class.std::_Deque_base"*
  %6 = getelementptr inbounds %"class.std::_Deque_base"* %5, i32 0, i32 0
  %7 = getelementptr inbounds %"struct.std::_Deque_base<int, std::allocator<int> >::_Deque_impl"* %6, i32 0, i32 2
  %8 = getelementptr inbounds %"struct.std::_Deque_iterator"* %7, i32 0, i32 0
  %9 = load i32** %8, align 8
  call void @_ZN9__gnu_cxx14__alloc_traitsISaIiEE7destroyERS1_Pi(%"class.std::allocator"* %4, i32* %9)
  %10 = bitcast %"class.std::deque"* %2 to %"class.std::_Deque_base"*
  %11 = bitcast %"class.std::deque"* %2 to %"class.std::_Deque_base"*
  %12 = getelementptr inbounds %"class.std::_Deque_base"* %11, i32 0, i32 0
  %13 = getelementptr inbounds %"struct.std::_Deque_base<int, std::allocator<int> >::_Deque_impl"* %12, i32 0, i32 2
  %14 = getelementptr inbounds %"struct.std::_Deque_iterator"* %13, i32 0, i32 1
  %15 = load i32** %14, align 8
  call void @_ZNSt11_Deque_baseIiSaIiEE18_M_deallocate_nodeEPi(%"class.std::_Deque_base"* %10, i32* %15)
  %16 = bitcast %"class.std::deque"* %2 to %"class.std::_Deque_base"*
  %17 = getelementptr inbounds %"class.std::_Deque_base"* %16, i32 0, i32 0
  %18 = getelementptr inbounds %"struct.std::_Deque_base<int, std::allocator<int> >::_Deque_impl"* %17, i32 0, i32 2
  %19 = bitcast %"class.std::deque"* %2 to %"class.std::_Deque_base"*
  %20 = getelementptr inbounds %"class.std::_Deque_base"* %19, i32 0, i32 0
  %21 = getelementptr inbounds %"struct.std::_Deque_base<int, std::allocator<int> >::_Deque_impl"* %20, i32 0, i32 2
  %22 = getelementptr inbounds %"struct.std::_Deque_iterator"* %21, i32 0, i32 3
  %23 = load i32*** %22, align 8
  %24 = getelementptr inbounds i32** %23, i64 1
  call void @_ZNSt15_Deque_iteratorIiRiPiE11_M_set_nodeEPS1_(%"struct.std::_Deque_iterator"* %18, i32** %24)
  %25 = bitcast %"class.std::deque"* %2 to %"class.std::_Deque_base"*
  %26 = getelementptr inbounds %"class.std::_Deque_base"* %25, i32 0, i32 0
  %27 = getelementptr inbounds %"struct.std::_Deque_base<int, std::allocator<int> >::_Deque_impl"* %26, i32 0, i32 2
  %28 = getelementptr inbounds %"struct.std::_Deque_iterator"* %27, i32 0, i32 1
  %29 = load i32** %28, align 8
  %30 = bitcast %"class.std::deque"* %2 to %"class.std::_Deque_base"*
  %31 = getelementptr inbounds %"class.std::_Deque_base"* %30, i32 0, i32 0
  %32 = getelementptr inbounds %"struct.std::_Deque_base<int, std::allocator<int> >::_Deque_impl"* %31, i32 0, i32 2
  %33 = getelementptr inbounds %"struct.std::_Deque_iterator"* %32, i32 0, i32 0
  store i32* %29, i32** %33, align 8
  ret void
}

; Function Attrs: nounwind uwtable
define linkonce_odr %"class.std::allocator"* @_ZNSt11_Deque_baseIiSaIiEE19_M_get_Tp_allocatorEv(%"class.std::_Deque_base"* %this) #6 align 2 {
  %1 = alloca %"class.std::_Deque_base"*, align 8
  store %"class.std::_Deque_base"* %this, %"class.std::_Deque_base"** %1, align 8
  %2 = load %"class.std::_Deque_base"** %1
  %3 = getelementptr inbounds %"class.std::_Deque_base"* %2, i32 0, i32 0
  %4 = bitcast %"struct.std::_Deque_base<int, std::allocator<int> >::_Deque_impl"* %3 to %"class.std::allocator"*
  ret %"class.std::allocator"* %4
}

; Function Attrs: uwtable
define linkonce_odr void @_ZNSt11_Deque_baseIiSaIiEE18_M_deallocate_nodeEPi(%"class.std::_Deque_base"* %this, i32* %__p) #2 align 2 {
  %1 = alloca %"class.std::_Deque_base"*, align 8
  %2 = alloca i32*, align 8
  store %"class.std::_Deque_base"* %this, %"class.std::_Deque_base"** %1, align 8
  store i32* %__p, i32** %2, align 8
  %3 = load %"class.std::_Deque_base"** %1
  %4 = getelementptr inbounds %"class.std::_Deque_base"* %3, i32 0, i32 0
  %5 = bitcast %"struct.std::_Deque_base<int, std::allocator<int> >::_Deque_impl"* %4 to %"class.std::allocator"*
  %6 = load i32** %2, align 8
  %7 = call i64 @_ZSt16__deque_buf_sizem(i64 4)
  call void @_ZN9__gnu_cxx14__alloc_traitsISaIiEE10deallocateERS1_Pim(%"class.std::allocator"* %5, i32* %6, i64 %7)
  ret void
}

; Function Attrs: uwtable
define linkonce_odr void @_ZNSt15_Deque_iteratorIiRiPiE11_M_set_nodeEPS1_(%"struct.std::_Deque_iterator"* %this, i32** %__new_node) #2 align 2 {
  %1 = alloca %"struct.std::_Deque_iterator"*, align 8
  %2 = alloca i32**, align 8
  store %"struct.std::_Deque_iterator"* %this, %"struct.std::_Deque_iterator"** %1, align 8
  store i32** %__new_node, i32*** %2, align 8
  %3 = load %"struct.std::_Deque_iterator"** %1
  %4 = load i32*** %2, align 8
  %5 = getelementptr inbounds %"struct.std::_Deque_iterator"* %3, i32 0, i32 3
  store i32** %4, i32*** %5, align 8
  %6 = load i32*** %2, align 8
  %7 = load i32** %6, align 8
  %8 = getelementptr inbounds %"struct.std::_Deque_iterator"* %3, i32 0, i32 1
  store i32* %7, i32** %8, align 8
  %9 = getelementptr inbounds %"struct.std::_Deque_iterator"* %3, i32 0, i32 1
  %10 = load i32** %9, align 8
  %11 = call i64 @_ZNSt15_Deque_iteratorIiRiPiE14_S_buffer_sizeEv()
  %12 = getelementptr inbounds i32* %10, i64 %11
  %13 = getelementptr inbounds %"struct.std::_Deque_iterator"* %3, i32 0, i32 2
  store i32* %12, i32** %13, align 8
  ret void
}

; Function Attrs: uwtable
define linkonce_odr i64 @_ZNSt15_Deque_iteratorIiRiPiE14_S_buffer_sizeEv() #2 align 2 {
  %1 = call i64 @_ZSt16__deque_buf_sizem(i64 4)
  ret i64 %1
}

; Function Attrs: inlinehint nounwind uwtable
define linkonce_odr i64 @_ZSt16__deque_buf_sizem(i64 %__size) #7 {
  %1 = alloca i64, align 8
  store i64 %__size, i64* %1, align 8
  %2 = load i64* %1, align 8
  %3 = icmp ult i64 %2, 512
  br i1 %3, label %4, label %7

; <label>:4                                       ; preds = %0
  %5 = load i64* %1, align 8
  %6 = udiv i64 512, %5
  br label %8

; <label>:7                                       ; preds = %0
  br label %8

; <label>:8                                       ; preds = %7, %4
  %9 = phi i64 [ %6, %4 ], [ 1, %7 ]
  ret i64 %9
}

; Function Attrs: uwtable
define linkonce_odr void @_ZN9__gnu_cxx14__alloc_traitsISaIiEE10deallocateERS1_Pim(%"class.std::allocator"* %__a, i32* %__p, i64 %__n) #2 align 2 {
  %1 = alloca %"class.std::allocator"*, align 8
  %2 = alloca i32*, align 8
  %3 = alloca i64, align 8
  store %"class.std::allocator"* %__a, %"class.std::allocator"** %1, align 8
  store i32* %__p, i32** %2, align 8
  store i64 %__n, i64* %3, align 8
  %4 = load %"class.std::allocator"** %1, align 8
  %5 = bitcast %"class.std::allocator"* %4 to %"class.__gnu_cxx::new_allocator"*
  %6 = load i32** %2, align 8
  %7 = load i64* %3, align 8
  call void @_ZN9__gnu_cxx13new_allocatorIiE10deallocateEPim(%"class.__gnu_cxx::new_allocator"* %5, i32* %6, i64 %7)
  ret void
}

; Function Attrs: nounwind uwtable
define linkonce_odr void @_ZN9__gnu_cxx13new_allocatorIiE10deallocateEPim(%"class.__gnu_cxx::new_allocator"* %this, i32* %__p, i64) #6 align 2 {
  %2 = alloca %"class.__gnu_cxx::new_allocator"*, align 8
  %3 = alloca i32*, align 8
  %4 = alloca i64, align 8
  store %"class.__gnu_cxx::new_allocator"* %this, %"class.__gnu_cxx::new_allocator"** %2, align 8
  store i32* %__p, i32** %3, align 8
  store i64 %0, i64* %4, align 8
  %5 = load %"class.__gnu_cxx::new_allocator"** %2
  %6 = load i32** %3, align 8
  %7 = bitcast i32* %6 to i8*
  call void @_ZdlPv(i8* %7) #1
  ret void
}

; Function Attrs: nobuiltin nounwind
declare void @_ZdlPv(i8*) #8

; Function Attrs: nounwind uwtable
define linkonce_odr void @_ZN9__gnu_cxx13new_allocatorIiE7destroyEPi(%"class.__gnu_cxx::new_allocator"* %this, i32* %__p) #6 align 2 {
  %1 = alloca %"class.__gnu_cxx::new_allocator"*, align 8
  %2 = alloca i32*, align 8
  store %"class.__gnu_cxx::new_allocator"* %this, %"class.__gnu_cxx::new_allocator"** %1, align 8
  store i32* %__p, i32** %2, align 8
  %3 = load %"class.__gnu_cxx::new_allocator"** %1
  %4 = load i32** %2, align 8
  ret void
}

; Function Attrs: uwtable
define linkonce_odr void @_ZNSt5dequeIiSaIiEE5beginEv(%"struct.std::_Deque_iterator"* noalias sret %agg.result, %"class.std::deque"* %this) #2 align 2 {
  %1 = alloca %"class.std::deque"*, align 8
  store %"class.std::deque"* %this, %"class.std::deque"** %1, align 8
  %2 = load %"class.std::deque"** %1
  %3 = bitcast %"class.std::deque"* %2 to %"class.std::_Deque_base"*
  %4 = getelementptr inbounds %"class.std::_Deque_base"* %3, i32 0, i32 0
  %5 = getelementptr inbounds %"struct.std::_Deque_base<int, std::allocator<int> >::_Deque_impl"* %4, i32 0, i32 2
  call void @_ZNSt15_Deque_iteratorIiRiPiEC2ERKS2_(%"struct.std::_Deque_iterator"* %agg.result, %"struct.std::_Deque_iterator"* %5)
  ret void
}

; Function Attrs: nounwind uwtable
define linkonce_odr i32* @_ZNKSt15_Deque_iteratorIiRiPiEdeEv(%"struct.std::_Deque_iterator"* %this) #6 align 2 {
  %1 = alloca %"struct.std::_Deque_iterator"*, align 8
  store %"struct.std::_Deque_iterator"* %this, %"struct.std::_Deque_iterator"** %1, align 8
  %2 = load %"struct.std::_Deque_iterator"** %1
  %3 = getelementptr inbounds %"struct.std::_Deque_iterator"* %2, i32 0, i32 0
  %4 = load i32** %3, align 8
  ret i32* %4
}

; Function Attrs: nounwind uwtable
define linkonce_odr void @_ZNSt15_Deque_iteratorIiRiPiEC2ERKS2_(%"struct.std::_Deque_iterator"* %this, %"struct.std::_Deque_iterator"* %__x) unnamed_addr #6 align 2 {
  %1 = alloca %"struct.std::_Deque_iterator"*, align 8
  %2 = alloca %"struct.std::_Deque_iterator"*, align 8
  store %"struct.std::_Deque_iterator"* %this, %"struct.std::_Deque_iterator"** %1, align 8
  store %"struct.std::_Deque_iterator"* %__x, %"struct.std::_Deque_iterator"** %2, align 8
  %3 = load %"struct.std::_Deque_iterator"** %1
  %4 = getelementptr inbounds %"struct.std::_Deque_iterator"* %3, i32 0, i32 0
  %5 = load %"struct.std::_Deque_iterator"** %2, align 8
  %6 = getelementptr inbounds %"struct.std::_Deque_iterator"* %5, i32 0, i32 0
  %7 = load i32** %6, align 8
  store i32* %7, i32** %4, align 8
  %8 = getelementptr inbounds %"struct.std::_Deque_iterator"* %3, i32 0, i32 1
  %9 = load %"struct.std::_Deque_iterator"** %2, align 8
  %10 = getelementptr inbounds %"struct.std::_Deque_iterator"* %9, i32 0, i32 1
  %11 = load i32** %10, align 8
  store i32* %11, i32** %8, align 8
  %12 = getelementptr inbounds %"struct.std::_Deque_iterator"* %3, i32 0, i32 2
  %13 = load %"struct.std::_Deque_iterator"** %2, align 8
  %14 = getelementptr inbounds %"struct.std::_Deque_iterator"* %13, i32 0, i32 2
  %15 = load i32** %14, align 8
  store i32* %15, i32** %12, align 8
  %16 = getelementptr inbounds %"struct.std::_Deque_iterator"* %3, i32 0, i32 3
  %17 = load %"struct.std::_Deque_iterator"** %2, align 8
  %18 = getelementptr inbounds %"struct.std::_Deque_iterator"* %17, i32 0, i32 3
  %19 = load i32*** %18, align 8
  store i32** %19, i32*** %16, align 8
  ret void
}

; Function Attrs: inlinehint nounwind uwtable
define linkonce_odr zeroext i1 @_ZSteqIiRiPiEbRKSt15_Deque_iteratorIT_T0_T1_ES8_(%"struct.std::_Deque_iterator"* %__x, %"struct.std::_Deque_iterator"* %__y) #7 {
  %1 = alloca %"struct.std::_Deque_iterator"*, align 8
  %2 = alloca %"struct.std::_Deque_iterator"*, align 8
  store %"struct.std::_Deque_iterator"* %__x, %"struct.std::_Deque_iterator"** %1, align 8
  store %"struct.std::_Deque_iterator"* %__y, %"struct.std::_Deque_iterator"** %2, align 8
  %3 = load %"struct.std::_Deque_iterator"** %1, align 8
  %4 = getelementptr inbounds %"struct.std::_Deque_iterator"* %3, i32 0, i32 0
  %5 = load i32** %4, align 8
  %6 = load %"struct.std::_Deque_iterator"** %2, align 8
  %7 = getelementptr inbounds %"struct.std::_Deque_iterator"* %6, i32 0, i32 0
  %8 = load i32** %7, align 8
  %9 = icmp eq i32* %5, %8
  ret i1 %9
}

; Function Attrs: nounwind uwtable
define linkonce_odr void @_ZN9__gnu_cxx14__alloc_traitsISaIiEE9constructIiEEvRS1_PiRKT_(%"class.std::allocator"* %__a, i32* %__p, i32* %__arg) #6 align 2 {
  %1 = alloca %"class.std::allocator"*, align 8
  %2 = alloca i32*, align 8
  %3 = alloca i32*, align 8
  store %"class.std::allocator"* %__a, %"class.std::allocator"** %1, align 8
  store i32* %__p, i32** %2, align 8
  store i32* %__arg, i32** %3, align 8
  %4 = load %"class.std::allocator"** %1, align 8
  %5 = bitcast %"class.std::allocator"* %4 to %"class.__gnu_cxx::new_allocator"*
  %6 = load i32** %2, align 8
  %7 = load i32** %3, align 8
  call void @_ZN9__gnu_cxx13new_allocatorIiE9constructEPiRKi(%"class.__gnu_cxx::new_allocator"* %5, i32* %6, i32* %7)
  ret void
}

; Function Attrs: uwtable
define linkonce_odr void @_ZNSt5dequeIiSaIiEE16_M_push_back_auxERKi(%"class.std::deque"* %this, i32* %__t) #2 align 2 {
  %1 = alloca %"class.std::deque"*, align 8
  %2 = alloca i32*, align 8
  store %"class.std::deque"* %this, %"class.std::deque"** %1, align 8
  store i32* %__t, i32** %2, align 8
  %3 = load %"class.std::deque"** %1
  call void @_ZNSt5dequeIiSaIiEE22_M_reserve_map_at_backEm(%"class.std::deque"* %3, i64 1)
  %4 = bitcast %"class.std::deque"* %3 to %"class.std::_Deque_base"*
  %5 = call i32* @_ZNSt11_Deque_baseIiSaIiEE16_M_allocate_nodeEv(%"class.std::_Deque_base"* %4)
  %6 = bitcast %"class.std::deque"* %3 to %"class.std::_Deque_base"*
  %7 = getelementptr inbounds %"class.std::_Deque_base"* %6, i32 0, i32 0
  %8 = getelementptr inbounds %"struct.std::_Deque_base<int, std::allocator<int> >::_Deque_impl"* %7, i32 0, i32 3
  %9 = getelementptr inbounds %"struct.std::_Deque_iterator"* %8, i32 0, i32 3
  %10 = load i32*** %9, align 8
  %11 = getelementptr inbounds i32** %10, i64 1
  store i32* %5, i32** %11, align 8
  %12 = bitcast %"class.std::deque"* %3 to %"class.std::_Deque_base"*
  %13 = getelementptr inbounds %"class.std::_Deque_base"* %12, i32 0, i32 0
  %14 = bitcast %"struct.std::_Deque_base<int, std::allocator<int> >::_Deque_impl"* %13 to %"class.__gnu_cxx::new_allocator"*
  %15 = bitcast %"class.std::deque"* %3 to %"class.std::_Deque_base"*
  %16 = getelementptr inbounds %"class.std::_Deque_base"* %15, i32 0, i32 0
  %17 = getelementptr inbounds %"struct.std::_Deque_base<int, std::allocator<int> >::_Deque_impl"* %16, i32 0, i32 3
  %18 = getelementptr inbounds %"struct.std::_Deque_iterator"* %17, i32 0, i32 0
  %19 = load i32** %18, align 8
  %20 = load i32** %2, align 8
  call void @_ZN9__gnu_cxx13new_allocatorIiE9constructEPiRKi(%"class.__gnu_cxx::new_allocator"* %14, i32* %19, i32* %20)
  %21 = bitcast %"class.std::deque"* %3 to %"class.std::_Deque_base"*
  %22 = getelementptr inbounds %"class.std::_Deque_base"* %21, i32 0, i32 0
  %23 = getelementptr inbounds %"struct.std::_Deque_base<int, std::allocator<int> >::_Deque_impl"* %22, i32 0, i32 3
  %24 = bitcast %"class.std::deque"* %3 to %"class.std::_Deque_base"*
  %25 = getelementptr inbounds %"class.std::_Deque_base"* %24, i32 0, i32 0
  %26 = getelementptr inbounds %"struct.std::_Deque_base<int, std::allocator<int> >::_Deque_impl"* %25, i32 0, i32 3
  %27 = getelementptr inbounds %"struct.std::_Deque_iterator"* %26, i32 0, i32 3
  %28 = load i32*** %27, align 8
  %29 = getelementptr inbounds i32** %28, i64 1
  call void @_ZNSt15_Deque_iteratorIiRiPiE11_M_set_nodeEPS1_(%"struct.std::_Deque_iterator"* %23, i32** %29)
  %30 = bitcast %"class.std::deque"* %3 to %"class.std::_Deque_base"*
  %31 = getelementptr inbounds %"class.std::_Deque_base"* %30, i32 0, i32 0
  %32 = getelementptr inbounds %"struct.std::_Deque_base<int, std::allocator<int> >::_Deque_impl"* %31, i32 0, i32 3
  %33 = getelementptr inbounds %"struct.std::_Deque_iterator"* %32, i32 0, i32 1
  %34 = load i32** %33, align 8
  %35 = bitcast %"class.std::deque"* %3 to %"class.std::_Deque_base"*
  %36 = getelementptr inbounds %"class.std::_Deque_base"* %35, i32 0, i32 0
  %37 = getelementptr inbounds %"struct.std::_Deque_base<int, std::allocator<int> >::_Deque_impl"* %36, i32 0, i32 3
  %38 = getelementptr inbounds %"struct.std::_Deque_iterator"* %37, i32 0, i32 0
  store i32* %34, i32** %38, align 8
  ret void
}

; Function Attrs: uwtable
define linkonce_odr void @_ZNSt5dequeIiSaIiEE22_M_reserve_map_at_backEm(%"class.std::deque"* %this, i64 %__nodes_to_add) #2 align 2 {
  %1 = alloca %"class.std::deque"*, align 8
  %2 = alloca i64, align 8
  store %"class.std::deque"* %this, %"class.std::deque"** %1, align 8
  store i64 %__nodes_to_add, i64* %2, align 8
  %3 = load %"class.std::deque"** %1
  %4 = load i64* %2, align 8
  %5 = add i64 %4, 1
  %6 = bitcast %"class.std::deque"* %3 to %"class.std::_Deque_base"*
  %7 = getelementptr inbounds %"class.std::_Deque_base"* %6, i32 0, i32 0
  %8 = getelementptr inbounds %"struct.std::_Deque_base<int, std::allocator<int> >::_Deque_impl"* %7, i32 0, i32 1
  %9 = load i64* %8, align 8
  %10 = bitcast %"class.std::deque"* %3 to %"class.std::_Deque_base"*
  %11 = getelementptr inbounds %"class.std::_Deque_base"* %10, i32 0, i32 0
  %12 = getelementptr inbounds %"struct.std::_Deque_base<int, std::allocator<int> >::_Deque_impl"* %11, i32 0, i32 3
  %13 = getelementptr inbounds %"struct.std::_Deque_iterator"* %12, i32 0, i32 3
  %14 = load i32*** %13, align 8
  %15 = bitcast %"class.std::deque"* %3 to %"class.std::_Deque_base"*
  %16 = getelementptr inbounds %"class.std::_Deque_base"* %15, i32 0, i32 0
  %17 = getelementptr inbounds %"struct.std::_Deque_base<int, std::allocator<int> >::_Deque_impl"* %16, i32 0, i32 0
  %18 = load i32*** %17, align 8
  %19 = ptrtoint i32** %14 to i64
  %20 = ptrtoint i32** %18 to i64
  %21 = sub i64 %19, %20
  %22 = sdiv exact i64 %21, 8
  %23 = sub i64 %9, %22
  %24 = icmp ugt i64 %5, %23
  br i1 %24, label %25, label %27

; <label>:25                                      ; preds = %0
  %26 = load i64* %2, align 8
  call void @_ZNSt5dequeIiSaIiEE17_M_reallocate_mapEmb(%"class.std::deque"* %3, i64 %26, i1 zeroext false)
  br label %27

; <label>:27                                      ; preds = %25, %0
  ret void
}

; Function Attrs: uwtable
define linkonce_odr i32* @_ZNSt11_Deque_baseIiSaIiEE16_M_allocate_nodeEv(%"class.std::_Deque_base"* %this) #2 align 2 {
  %1 = alloca %"class.std::_Deque_base"*, align 8
  store %"class.std::_Deque_base"* %this, %"class.std::_Deque_base"** %1, align 8
  %2 = load %"class.std::_Deque_base"** %1
  %3 = getelementptr inbounds %"class.std::_Deque_base"* %2, i32 0, i32 0
  %4 = bitcast %"struct.std::_Deque_base<int, std::allocator<int> >::_Deque_impl"* %3 to %"class.std::allocator"*
  %5 = call i64 @_ZSt16__deque_buf_sizem(i64 4)
  %6 = call i32* @_ZN9__gnu_cxx14__alloc_traitsISaIiEE8allocateERS1_m(%"class.std::allocator"* %4, i64 %5)
  ret i32* %6
}

; Function Attrs: nounwind uwtable
define linkonce_odr void @_ZN9__gnu_cxx13new_allocatorIiE9constructEPiRKi(%"class.__gnu_cxx::new_allocator"* %this, i32* %__p, i32* %__val) #6 align 2 {
  %1 = alloca %"class.__gnu_cxx::new_allocator"*, align 8
  %2 = alloca i32*, align 8
  %3 = alloca i32*, align 8
  store %"class.__gnu_cxx::new_allocator"* %this, %"class.__gnu_cxx::new_allocator"** %1, align 8
  store i32* %__p, i32** %2, align 8
  store i32* %__val, i32** %3, align 8
  %4 = load %"class.__gnu_cxx::new_allocator"** %1
  %5 = load i32** %2, align 8
  %6 = bitcast i32* %5 to i8*
  %7 = icmp eq i8* %6, null
  br i1 %7, label %12, label %8

; <label>:8                                       ; preds = %0
  %9 = bitcast i8* %6 to i32*
  %10 = load i32** %3, align 8
  %11 = load i32* %10, align 4
  store i32 %11, i32* %9, align 4
  br label %12

; <label>:12                                      ; preds = %8, %0
  %13 = phi i32* [ %9, %8 ], [ null, %0 ]
  ret void
}

; Function Attrs: uwtable
define linkonce_odr i32* @_ZN9__gnu_cxx14__alloc_traitsISaIiEE8allocateERS1_m(%"class.std::allocator"* %__a, i64 %__n) #2 align 2 {
  %1 = alloca %"class.std::allocator"*, align 8
  %2 = alloca i64, align 8
  store %"class.std::allocator"* %__a, %"class.std::allocator"** %1, align 8
  store i64 %__n, i64* %2, align 8
  %3 = load %"class.std::allocator"** %1, align 8
  %4 = bitcast %"class.std::allocator"* %3 to %"class.__gnu_cxx::new_allocator"*
  %5 = load i64* %2, align 8
  %6 = call i32* @_ZN9__gnu_cxx13new_allocatorIiE8allocateEmPKv(%"class.__gnu_cxx::new_allocator"* %4, i64 %5, i8* null)
  ret i32* %6
}

; Function Attrs: uwtable
define linkonce_odr i32* @_ZN9__gnu_cxx13new_allocatorIiE8allocateEmPKv(%"class.__gnu_cxx::new_allocator"* %this, i64 %__n, i8*) #2 align 2 {
  %2 = alloca %"class.__gnu_cxx::new_allocator"*, align 8
  %3 = alloca i64, align 8
  %4 = alloca i8*, align 8
  store %"class.__gnu_cxx::new_allocator"* %this, %"class.__gnu_cxx::new_allocator"** %2, align 8
  store i64 %__n, i64* %3, align 8
  store i8* %0, i8** %4, align 8
  %5 = load %"class.__gnu_cxx::new_allocator"** %2
  %6 = load i64* %3, align 8
  %7 = call i64 @_ZNK9__gnu_cxx13new_allocatorIiE8max_sizeEv(%"class.__gnu_cxx::new_allocator"* %5) #1
  %8 = icmp ugt i64 %6, %7
  br i1 %8, label %9, label %10

; <label>:9                                       ; preds = %1
  call void @_ZSt17__throw_bad_allocv() #14
  unreachable

; <label>:10                                      ; preds = %1
  %11 = load i64* %3, align 8
  %12 = mul i64 %11, 4
  %13 = call noalias i8* @_Znwm(i64 %12)
  %14 = bitcast i8* %13 to i32*
  ret i32* %14
}

; Function Attrs: nounwind uwtable
define linkonce_odr i64 @_ZNK9__gnu_cxx13new_allocatorIiE8max_sizeEv(%"class.__gnu_cxx::new_allocator"* %this) #6 align 2 {
  %1 = alloca %"class.__gnu_cxx::new_allocator"*, align 8
  store %"class.__gnu_cxx::new_allocator"* %this, %"class.__gnu_cxx::new_allocator"** %1, align 8
  %2 = load %"class.__gnu_cxx::new_allocator"** %1
  ret i64 4611686018427387903
}

; Function Attrs: noreturn
declare void @_ZSt17__throw_bad_allocv() #9

; Function Attrs: nobuiltin
declare noalias i8* @_Znwm(i64) #10

; Function Attrs: uwtable
define linkonce_odr void @_ZNSt5dequeIiSaIiEE17_M_reallocate_mapEmb(%"class.std::deque"* %this, i64 %__nodes_to_add, i1 zeroext %__add_at_front) #2 align 2 {
  %1 = alloca %"class.std::deque"*, align 8
  %2 = alloca i64, align 8
  %3 = alloca i8, align 1
  %__old_num_nodes = alloca i64, align 8
  %__new_num_nodes = alloca i64, align 8
  %__new_nstart = alloca i32**, align 8
  %__new_map_size = alloca i64, align 8
  %__new_map = alloca i32**, align 8
  store %"class.std::deque"* %this, %"class.std::deque"** %1, align 8
  store i64 %__nodes_to_add, i64* %2, align 8
  %4 = zext i1 %__add_at_front to i8
  store i8 %4, i8* %3, align 1
  %5 = load %"class.std::deque"** %1
  %6 = bitcast %"class.std::deque"* %5 to %"class.std::_Deque_base"*
  %7 = getelementptr inbounds %"class.std::_Deque_base"* %6, i32 0, i32 0
  %8 = getelementptr inbounds %"struct.std::_Deque_base<int, std::allocator<int> >::_Deque_impl"* %7, i32 0, i32 3
  %9 = getelementptr inbounds %"struct.std::_Deque_iterator"* %8, i32 0, i32 3
  %10 = load i32*** %9, align 8
  %11 = bitcast %"class.std::deque"* %5 to %"class.std::_Deque_base"*
  %12 = getelementptr inbounds %"class.std::_Deque_base"* %11, i32 0, i32 0
  %13 = getelementptr inbounds %"struct.std::_Deque_base<int, std::allocator<int> >::_Deque_impl"* %12, i32 0, i32 2
  %14 = getelementptr inbounds %"struct.std::_Deque_iterator"* %13, i32 0, i32 3
  %15 = load i32*** %14, align 8
  %16 = ptrtoint i32** %10 to i64
  %17 = ptrtoint i32** %15 to i64
  %18 = sub i64 %16, %17
  %19 = sdiv exact i64 %18, 8
  %20 = add nsw i64 %19, 1
  store i64 %20, i64* %__old_num_nodes, align 8
  %21 = load i64* %__old_num_nodes, align 8
  %22 = load i64* %2, align 8
  %23 = add i64 %21, %22
  store i64 %23, i64* %__new_num_nodes, align 8
  %24 = bitcast %"class.std::deque"* %5 to %"class.std::_Deque_base"*
  %25 = getelementptr inbounds %"class.std::_Deque_base"* %24, i32 0, i32 0
  %26 = getelementptr inbounds %"struct.std::_Deque_base<int, std::allocator<int> >::_Deque_impl"* %25, i32 0, i32 1
  %27 = load i64* %26, align 8
  %28 = load i64* %__new_num_nodes, align 8
  %29 = mul i64 2, %28
  %30 = icmp ugt i64 %27, %29
  br i1 %30, label %31, label %90

; <label>:31                                      ; preds = %0
  %32 = bitcast %"class.std::deque"* %5 to %"class.std::_Deque_base"*
  %33 = getelementptr inbounds %"class.std::_Deque_base"* %32, i32 0, i32 0
  %34 = getelementptr inbounds %"struct.std::_Deque_base<int, std::allocator<int> >::_Deque_impl"* %33, i32 0, i32 0
  %35 = load i32*** %34, align 8
  %36 = bitcast %"class.std::deque"* %5 to %"class.std::_Deque_base"*
  %37 = getelementptr inbounds %"class.std::_Deque_base"* %36, i32 0, i32 0
  %38 = getelementptr inbounds %"struct.std::_Deque_base<int, std::allocator<int> >::_Deque_impl"* %37, i32 0, i32 1
  %39 = load i64* %38, align 8
  %40 = load i64* %__new_num_nodes, align 8
  %41 = sub i64 %39, %40
  %42 = udiv i64 %41, 2
  %43 = getelementptr inbounds i32** %35, i64 %42
  %44 = load i8* %3, align 1
  %45 = trunc i8 %44 to i1
  br i1 %45, label %46, label %48

; <label>:46                                      ; preds = %31
  %47 = load i64* %2, align 8
  br label %49

; <label>:48                                      ; preds = %31
  br label %49

; <label>:49                                      ; preds = %48, %46
  %50 = phi i64 [ %47, %46 ], [ 0, %48 ]
  %51 = getelementptr inbounds i32** %43, i64 %50
  store i32** %51, i32*** %__new_nstart, align 8
  %52 = load i32*** %__new_nstart, align 8
  %53 = bitcast %"class.std::deque"* %5 to %"class.std::_Deque_base"*
  %54 = getelementptr inbounds %"class.std::_Deque_base"* %53, i32 0, i32 0
  %55 = getelementptr inbounds %"struct.std::_Deque_base<int, std::allocator<int> >::_Deque_impl"* %54, i32 0, i32 2
  %56 = getelementptr inbounds %"struct.std::_Deque_iterator"* %55, i32 0, i32 3
  %57 = load i32*** %56, align 8
  %58 = icmp ult i32** %52, %57
  br i1 %58, label %59, label %73

; <label>:59                                      ; preds = %49
  %60 = bitcast %"class.std::deque"* %5 to %"class.std::_Deque_base"*
  %61 = getelementptr inbounds %"class.std::_Deque_base"* %60, i32 0, i32 0
  %62 = getelementptr inbounds %"struct.std::_Deque_base<int, std::allocator<int> >::_Deque_impl"* %61, i32 0, i32 2
  %63 = getelementptr inbounds %"struct.std::_Deque_iterator"* %62, i32 0, i32 3
  %64 = load i32*** %63, align 8
  %65 = bitcast %"class.std::deque"* %5 to %"class.std::_Deque_base"*
  %66 = getelementptr inbounds %"class.std::_Deque_base"* %65, i32 0, i32 0
  %67 = getelementptr inbounds %"struct.std::_Deque_base<int, std::allocator<int> >::_Deque_impl"* %66, i32 0, i32 3
  %68 = getelementptr inbounds %"struct.std::_Deque_iterator"* %67, i32 0, i32 3
  %69 = load i32*** %68, align 8
  %70 = getelementptr inbounds i32** %69, i64 1
  %71 = load i32*** %__new_nstart, align 8
  %72 = call i32** @_ZSt4copyIPPiS1_ET0_T_S3_S2_(i32** %64, i32** %70, i32** %71)
  br label %89

; <label>:73                                      ; preds = %49
  %74 = bitcast %"class.std::deque"* %5 to %"class.std::_Deque_base"*
  %75 = getelementptr inbounds %"class.std::_Deque_base"* %74, i32 0, i32 0
  %76 = getelementptr inbounds %"struct.std::_Deque_base<int, std::allocator<int> >::_Deque_impl"* %75, i32 0, i32 2
  %77 = getelementptr inbounds %"struct.std::_Deque_iterator"* %76, i32 0, i32 3
  %78 = load i32*** %77, align 8
  %79 = bitcast %"class.std::deque"* %5 to %"class.std::_Deque_base"*
  %80 = getelementptr inbounds %"class.std::_Deque_base"* %79, i32 0, i32 0
  %81 = getelementptr inbounds %"struct.std::_Deque_base<int, std::allocator<int> >::_Deque_impl"* %80, i32 0, i32 3
  %82 = getelementptr inbounds %"struct.std::_Deque_iterator"* %81, i32 0, i32 3
  %83 = load i32*** %82, align 8
  %84 = getelementptr inbounds i32** %83, i64 1
  %85 = load i32*** %__new_nstart, align 8
  %86 = load i64* %__old_num_nodes, align 8
  %87 = getelementptr inbounds i32** %85, i64 %86
  %88 = call i32** @_ZSt13copy_backwardIPPiS1_ET0_T_S3_S2_(i32** %78, i32** %84, i32** %87)
  br label %89

; <label>:89                                      ; preds = %73, %59
  br label %149

; <label>:90                                      ; preds = %0
  %91 = bitcast %"class.std::deque"* %5 to %"class.std::_Deque_base"*
  %92 = getelementptr inbounds %"class.std::_Deque_base"* %91, i32 0, i32 0
  %93 = getelementptr inbounds %"struct.std::_Deque_base<int, std::allocator<int> >::_Deque_impl"* %92, i32 0, i32 1
  %94 = load i64* %93, align 8
  %95 = bitcast %"class.std::deque"* %5 to %"class.std::_Deque_base"*
  %96 = getelementptr inbounds %"class.std::_Deque_base"* %95, i32 0, i32 0
  %97 = getelementptr inbounds %"struct.std::_Deque_base<int, std::allocator<int> >::_Deque_impl"* %96, i32 0, i32 1
  %98 = call i64* @_ZSt3maxImERKT_S2_S2_(i64* %97, i64* %2)
  %99 = load i64* %98
  %100 = add i64 %94, %99
  %101 = add i64 %100, 2
  store i64 %101, i64* %__new_map_size, align 8
  %102 = bitcast %"class.std::deque"* %5 to %"class.std::_Deque_base"*
  %103 = load i64* %__new_map_size, align 8
  %104 = call i32** @_ZNSt11_Deque_baseIiSaIiEE15_M_allocate_mapEm(%"class.std::_Deque_base"* %102, i64 %103)
  store i32** %104, i32*** %__new_map, align 8
  %105 = load i32*** %__new_map, align 8
  %106 = load i64* %__new_map_size, align 8
  %107 = load i64* %__new_num_nodes, align 8
  %108 = sub i64 %106, %107
  %109 = udiv i64 %108, 2
  %110 = getelementptr inbounds i32** %105, i64 %109
  %111 = load i8* %3, align 1
  %112 = trunc i8 %111 to i1
  br i1 %112, label %113, label %115

; <label>:113                                     ; preds = %90
  %114 = load i64* %2, align 8
  br label %116

; <label>:115                                     ; preds = %90
  br label %116

; <label>:116                                     ; preds = %115, %113
  %117 = phi i64 [ %114, %113 ], [ 0, %115 ]
  %118 = getelementptr inbounds i32** %110, i64 %117
  store i32** %118, i32*** %__new_nstart, align 8
  %119 = bitcast %"class.std::deque"* %5 to %"class.std::_Deque_base"*
  %120 = getelementptr inbounds %"class.std::_Deque_base"* %119, i32 0, i32 0
  %121 = getelementptr inbounds %"struct.std::_Deque_base<int, std::allocator<int> >::_Deque_impl"* %120, i32 0, i32 2
  %122 = getelementptr inbounds %"struct.std::_Deque_iterator"* %121, i32 0, i32 3
  %123 = load i32*** %122, align 8
  %124 = bitcast %"class.std::deque"* %5 to %"class.std::_Deque_base"*
  %125 = getelementptr inbounds %"class.std::_Deque_base"* %124, i32 0, i32 0
  %126 = getelementptr inbounds %"struct.std::_Deque_base<int, std::allocator<int> >::_Deque_impl"* %125, i32 0, i32 3
  %127 = getelementptr inbounds %"struct.std::_Deque_iterator"* %126, i32 0, i32 3
  %128 = load i32*** %127, align 8
  %129 = getelementptr inbounds i32** %128, i64 1
  %130 = load i32*** %__new_nstart, align 8
  %131 = call i32** @_ZSt4copyIPPiS1_ET0_T_S3_S2_(i32** %123, i32** %129, i32** %130)
  %132 = bitcast %"class.std::deque"* %5 to %"class.std::_Deque_base"*
  %133 = bitcast %"class.std::deque"* %5 to %"class.std::_Deque_base"*
  %134 = getelementptr inbounds %"class.std::_Deque_base"* %133, i32 0, i32 0
  %135 = getelementptr inbounds %"struct.std::_Deque_base<int, std::allocator<int> >::_Deque_impl"* %134, i32 0, i32 0
  %136 = load i32*** %135, align 8
  %137 = bitcast %"class.std::deque"* %5 to %"class.std::_Deque_base"*
  %138 = getelementptr inbounds %"class.std::_Deque_base"* %137, i32 0, i32 0
  %139 = getelementptr inbounds %"struct.std::_Deque_base<int, std::allocator<int> >::_Deque_impl"* %138, i32 0, i32 1
  %140 = load i64* %139, align 8
  call void @_ZNSt11_Deque_baseIiSaIiEE17_M_deallocate_mapEPPim(%"class.std::_Deque_base"* %132, i32** %136, i64 %140)
  %141 = load i32*** %__new_map, align 8
  %142 = bitcast %"class.std::deque"* %5 to %"class.std::_Deque_base"*
  %143 = getelementptr inbounds %"class.std::_Deque_base"* %142, i32 0, i32 0
  %144 = getelementptr inbounds %"struct.std::_Deque_base<int, std::allocator<int> >::_Deque_impl"* %143, i32 0, i32 0
  store i32** %141, i32*** %144, align 8
  %145 = load i64* %__new_map_size, align 8
  %146 = bitcast %"class.std::deque"* %5 to %"class.std::_Deque_base"*
  %147 = getelementptr inbounds %"class.std::_Deque_base"* %146, i32 0, i32 0
  %148 = getelementptr inbounds %"struct.std::_Deque_base<int, std::allocator<int> >::_Deque_impl"* %147, i32 0, i32 1
  store i64 %145, i64* %148, align 8
  br label %149

; <label>:149                                     ; preds = %116, %89
  %150 = bitcast %"class.std::deque"* %5 to %"class.std::_Deque_base"*
  %151 = getelementptr inbounds %"class.std::_Deque_base"* %150, i32 0, i32 0
  %152 = getelementptr inbounds %"struct.std::_Deque_base<int, std::allocator<int> >::_Deque_impl"* %151, i32 0, i32 2
  %153 = load i32*** %__new_nstart, align 8
  call void @_ZNSt15_Deque_iteratorIiRiPiE11_M_set_nodeEPS1_(%"struct.std::_Deque_iterator"* %152, i32** %153)
  %154 = bitcast %"class.std::deque"* %5 to %"class.std::_Deque_base"*
  %155 = getelementptr inbounds %"class.std::_Deque_base"* %154, i32 0, i32 0
  %156 = getelementptr inbounds %"struct.std::_Deque_base<int, std::allocator<int> >::_Deque_impl"* %155, i32 0, i32 3
  %157 = load i32*** %__new_nstart, align 8
  %158 = load i64* %__old_num_nodes, align 8
  %159 = getelementptr inbounds i32** %157, i64 %158
  %160 = getelementptr inbounds i32** %159, i64 -1
  call void @_ZNSt15_Deque_iteratorIiRiPiE11_M_set_nodeEPS1_(%"struct.std::_Deque_iterator"* %156, i32** %160)
  ret void
}

; Function Attrs: inlinehint uwtable
define linkonce_odr i32** @_ZSt4copyIPPiS1_ET0_T_S3_S2_(i32** %__first, i32** %__last, i32** %__result) #11 {
  %1 = alloca i32**, align 8
  %2 = alloca i32**, align 8
  %3 = alloca i32**, align 8
  store i32** %__first, i32*** %1, align 8
  store i32** %__last, i32*** %2, align 8
  store i32** %__result, i32*** %3, align 8
  %4 = load i32*** %1, align 8
  %5 = call i32** @_ZSt12__miter_baseIPPiENSt11_Miter_baseIT_E13iterator_typeES3_(i32** %4)
  %6 = load i32*** %2, align 8
  %7 = call i32** @_ZSt12__miter_baseIPPiENSt11_Miter_baseIT_E13iterator_typeES3_(i32** %6)
  %8 = load i32*** %3, align 8
  %9 = call i32** @_ZSt14__copy_move_a2ILb0EPPiS1_ET1_T0_S3_S2_(i32** %5, i32** %7, i32** %8)
  ret i32** %9
}

; Function Attrs: inlinehint uwtable
define linkonce_odr i32** @_ZSt13copy_backwardIPPiS1_ET0_T_S3_S2_(i32** %__first, i32** %__last, i32** %__result) #11 {
  %1 = alloca i32**, align 8
  %2 = alloca i32**, align 8
  %3 = alloca i32**, align 8
  store i32** %__first, i32*** %1, align 8
  store i32** %__last, i32*** %2, align 8
  store i32** %__result, i32*** %3, align 8
  %4 = load i32*** %1, align 8
  %5 = call i32** @_ZSt12__miter_baseIPPiENSt11_Miter_baseIT_E13iterator_typeES3_(i32** %4)
  %6 = load i32*** %2, align 8
  %7 = call i32** @_ZSt12__miter_baseIPPiENSt11_Miter_baseIT_E13iterator_typeES3_(i32** %6)
  %8 = load i32*** %3, align 8
  %9 = call i32** @_ZSt23__copy_move_backward_a2ILb0EPPiS1_ET1_T0_S3_S2_(i32** %5, i32** %7, i32** %8)
  ret i32** %9
}

; Function Attrs: inlinehint nounwind uwtable
define linkonce_odr i64* @_ZSt3maxImERKT_S2_S2_(i64* %__a, i64* %__b) #7 {
  %1 = alloca i64*, align 8
  %2 = alloca i64*, align 8
  %3 = alloca i64*, align 8
  store i64* %__a, i64** %2, align 8
  store i64* %__b, i64** %3, align 8
  %4 = load i64** %2, align 8
  %5 = load i64* %4, align 8
  %6 = load i64** %3, align 8
  %7 = load i64* %6, align 8
  %8 = icmp ult i64 %5, %7
  br i1 %8, label %9, label %11

; <label>:9                                       ; preds = %0
  %10 = load i64** %3, align 8
  store i64* %10, i64** %1
  br label %13

; <label>:11                                      ; preds = %0
  %12 = load i64** %2, align 8
  store i64* %12, i64** %1
  br label %13

; <label>:13                                      ; preds = %11, %9
  %14 = load i64** %1
  ret i64* %14
}

; Function Attrs: uwtable
define linkonce_odr i32** @_ZNSt11_Deque_baseIiSaIiEE15_M_allocate_mapEm(%"class.std::_Deque_base"* %this, i64 %__n) #2 align 2 {
  %1 = alloca %"class.std::_Deque_base"*, align 8
  %2 = alloca i64, align 8
  %__map_alloc = alloca %"class.std::allocator.0", align 1
  %3 = alloca i8*
  %4 = alloca i32
  %5 = alloca i32
  store %"class.std::_Deque_base"* %this, %"class.std::_Deque_base"** %1, align 8
  store i64 %__n, i64* %2, align 8
  %6 = load %"class.std::_Deque_base"** %1
  call void @_ZNKSt11_Deque_baseIiSaIiEE20_M_get_map_allocatorEv(%"class.std::allocator.0"* sret %__map_alloc, %"class.std::_Deque_base"* %6)
  %7 = load i64* %2, align 8
  %8 = invoke i32** @_ZN9__gnu_cxx14__alloc_traitsISaIPiEE8allocateERS2_m(%"class.std::allocator.0"* %__map_alloc, i64 %7)
          to label %9 unwind label %10

; <label>:9                                       ; preds = %0
  store i32 1, i32* %5
  call void @_ZNSaIPiED2Ev(%"class.std::allocator.0"* %__map_alloc) #1
  ret i32** %8

; <label>:10                                      ; preds = %0
  %11 = landingpad { i8*, i32 } personality i8* bitcast (i32 (...)* @__gxx_personality_v0 to i8*)
          cleanup
  %12 = extractvalue { i8*, i32 } %11, 0
  store i8* %12, i8** %3
  %13 = extractvalue { i8*, i32 } %11, 1
  store i32 %13, i32* %4
  call void @_ZNSaIPiED2Ev(%"class.std::allocator.0"* %__map_alloc) #1
  br label %14

; <label>:14                                      ; preds = %10
  %15 = load i8** %3
  %16 = load i32* %4
  %17 = insertvalue { i8*, i32 } undef, i8* %15, 0
  %18 = insertvalue { i8*, i32 } %17, i32 %16, 1
  resume { i8*, i32 } %18
}

; Function Attrs: uwtable
define linkonce_odr void @_ZNSt11_Deque_baseIiSaIiEE17_M_deallocate_mapEPPim(%"class.std::_Deque_base"* %this, i32** %__p, i64 %__n) #2 align 2 {
  %1 = alloca %"class.std::_Deque_base"*, align 8
  %2 = alloca i32**, align 8
  %3 = alloca i64, align 8
  %__map_alloc = alloca %"class.std::allocator.0", align 1
  %4 = alloca i8*
  %5 = alloca i32
  store %"class.std::_Deque_base"* %this, %"class.std::_Deque_base"** %1, align 8
  store i32** %__p, i32*** %2, align 8
  store i64 %__n, i64* %3, align 8
  %6 = load %"class.std::_Deque_base"** %1
  call void @_ZNKSt11_Deque_baseIiSaIiEE20_M_get_map_allocatorEv(%"class.std::allocator.0"* sret %__map_alloc, %"class.std::_Deque_base"* %6)
  %7 = load i32*** %2, align 8
  %8 = load i64* %3, align 8
  invoke void @_ZN9__gnu_cxx14__alloc_traitsISaIPiEE10deallocateERS2_PS1_m(%"class.std::allocator.0"* %__map_alloc, i32** %7, i64 %8)
          to label %9 unwind label %10

; <label>:9                                       ; preds = %0
  call void @_ZNSaIPiED2Ev(%"class.std::allocator.0"* %__map_alloc) #1
  ret void

; <label>:10                                      ; preds = %0
  %11 = landingpad { i8*, i32 } personality i8* bitcast (i32 (...)* @__gxx_personality_v0 to i8*)
          cleanup
  %12 = extractvalue { i8*, i32 } %11, 0
  store i8* %12, i8** %4
  %13 = extractvalue { i8*, i32 } %11, 1
  store i32 %13, i32* %5
  call void @_ZNSaIPiED2Ev(%"class.std::allocator.0"* %__map_alloc) #1
  br label %14

; <label>:14                                      ; preds = %10
  %15 = load i8** %4
  %16 = load i32* %5
  %17 = insertvalue { i8*, i32 } undef, i8* %15, 0
  %18 = insertvalue { i8*, i32 } %17, i32 %16, 1
  resume { i8*, i32 } %18
}

; Function Attrs: uwtable
define linkonce_odr void @_ZNKSt11_Deque_baseIiSaIiEE20_M_get_map_allocatorEv(%"class.std::allocator.0"* noalias sret %agg.result, %"class.std::_Deque_base"* %this) #2 align 2 {
  %1 = alloca %"class.std::_Deque_base"*, align 8
  store %"class.std::_Deque_base"* %this, %"class.std::_Deque_base"** %1, align 8
  %2 = load %"class.std::_Deque_base"** %1
  %3 = call %"class.std::allocator"* @_ZNKSt11_Deque_baseIiSaIiEE19_M_get_Tp_allocatorEv(%"class.std::_Deque_base"* %2)
  call void @_ZNSaIPiEC2IiEERKSaIT_E(%"class.std::allocator.0"* %agg.result, %"class.std::allocator"* %3) #1
  ret void
}

; Function Attrs: uwtable
define linkonce_odr void @_ZN9__gnu_cxx14__alloc_traitsISaIPiEE10deallocateERS2_PS1_m(%"class.std::allocator.0"* %__a, i32** %__p, i64 %__n) #2 align 2 {
  %1 = alloca %"class.std::allocator.0"*, align 8
  %2 = alloca i32**, align 8
  %3 = alloca i64, align 8
  store %"class.std::allocator.0"* %__a, %"class.std::allocator.0"** %1, align 8
  store i32** %__p, i32*** %2, align 8
  store i64 %__n, i64* %3, align 8
  %4 = load %"class.std::allocator.0"** %1, align 8
  %5 = bitcast %"class.std::allocator.0"* %4 to %"class.__gnu_cxx::new_allocator.1"*
  %6 = load i32*** %2, align 8
  %7 = load i64* %3, align 8
  call void @_ZN9__gnu_cxx13new_allocatorIPiE10deallocateEPS1_m(%"class.__gnu_cxx::new_allocator.1"* %5, i32** %6, i64 %7)
  ret void
}

; Function Attrs: nounwind uwtable
define linkonce_odr void @_ZNSaIPiED2Ev(%"class.std::allocator.0"* %this) unnamed_addr #6 align 2 {
  %1 = alloca %"class.std::allocator.0"*, align 8
  store %"class.std::allocator.0"* %this, %"class.std::allocator.0"** %1, align 8
  %2 = load %"class.std::allocator.0"** %1
  %3 = bitcast %"class.std::allocator.0"* %2 to %"class.__gnu_cxx::new_allocator.1"*
  call void @_ZN9__gnu_cxx13new_allocatorIPiED2Ev(%"class.__gnu_cxx::new_allocator.1"* %3) #1
  ret void
}

; Function Attrs: nounwind uwtable
define linkonce_odr void @_ZN9__gnu_cxx13new_allocatorIPiED2Ev(%"class.__gnu_cxx::new_allocator.1"* %this) unnamed_addr #6 align 2 {
  %1 = alloca %"class.__gnu_cxx::new_allocator.1"*, align 8
  store %"class.__gnu_cxx::new_allocator.1"* %this, %"class.__gnu_cxx::new_allocator.1"** %1, align 8
  %2 = load %"class.__gnu_cxx::new_allocator.1"** %1
  ret void
}

; Function Attrs: nounwind uwtable
define linkonce_odr void @_ZN9__gnu_cxx13new_allocatorIPiE10deallocateEPS1_m(%"class.__gnu_cxx::new_allocator.1"* %this, i32** %__p, i64) #6 align 2 {
  %2 = alloca %"class.__gnu_cxx::new_allocator.1"*, align 8
  %3 = alloca i32**, align 8
  %4 = alloca i64, align 8
  store %"class.__gnu_cxx::new_allocator.1"* %this, %"class.__gnu_cxx::new_allocator.1"** %2, align 8
  store i32** %__p, i32*** %3, align 8
  store i64 %0, i64* %4, align 8
  %5 = load %"class.__gnu_cxx::new_allocator.1"** %2
  %6 = load i32*** %3, align 8
  %7 = bitcast i32** %6 to i8*
  call void @_ZdlPv(i8* %7) #1
  ret void
}

; Function Attrs: nounwind uwtable
define linkonce_odr void @_ZNSaIPiEC2IiEERKSaIT_E(%"class.std::allocator.0"* %this, %"class.std::allocator"*) unnamed_addr #6 align 2 {
  %2 = alloca %"class.std::allocator.0"*, align 8
  %3 = alloca %"class.std::allocator"*, align 8
  store %"class.std::allocator.0"* %this, %"class.std::allocator.0"** %2, align 8
  store %"class.std::allocator"* %0, %"class.std::allocator"** %3, align 8
  %4 = load %"class.std::allocator.0"** %2
  %5 = bitcast %"class.std::allocator.0"* %4 to %"class.__gnu_cxx::new_allocator.1"*
  call void @_ZN9__gnu_cxx13new_allocatorIPiEC2Ev(%"class.__gnu_cxx::new_allocator.1"* %5) #1
  ret void
}

; Function Attrs: nounwind uwtable
define linkonce_odr %"class.std::allocator"* @_ZNKSt11_Deque_baseIiSaIiEE19_M_get_Tp_allocatorEv(%"class.std::_Deque_base"* %this) #6 align 2 {
  %1 = alloca %"class.std::_Deque_base"*, align 8
  store %"class.std::_Deque_base"* %this, %"class.std::_Deque_base"** %1, align 8
  %2 = load %"class.std::_Deque_base"** %1
  %3 = getelementptr inbounds %"class.std::_Deque_base"* %2, i32 0, i32 0
  %4 = bitcast %"struct.std::_Deque_base<int, std::allocator<int> >::_Deque_impl"* %3 to %"class.std::allocator"*
  ret %"class.std::allocator"* %4
}

; Function Attrs: nounwind uwtable
define linkonce_odr void @_ZN9__gnu_cxx13new_allocatorIPiEC2Ev(%"class.__gnu_cxx::new_allocator.1"* %this) unnamed_addr #6 align 2 {
  %1 = alloca %"class.__gnu_cxx::new_allocator.1"*, align 8
  store %"class.__gnu_cxx::new_allocator.1"* %this, %"class.__gnu_cxx::new_allocator.1"** %1, align 8
  %2 = load %"class.__gnu_cxx::new_allocator.1"** %1
  ret void
}

; Function Attrs: uwtable
define linkonce_odr i32** @_ZN9__gnu_cxx14__alloc_traitsISaIPiEE8allocateERS2_m(%"class.std::allocator.0"* %__a, i64 %__n) #2 align 2 {
  %1 = alloca %"class.std::allocator.0"*, align 8
  %2 = alloca i64, align 8
  store %"class.std::allocator.0"* %__a, %"class.std::allocator.0"** %1, align 8
  store i64 %__n, i64* %2, align 8
  %3 = load %"class.std::allocator.0"** %1, align 8
  %4 = bitcast %"class.std::allocator.0"* %3 to %"class.__gnu_cxx::new_allocator.1"*
  %5 = load i64* %2, align 8
  %6 = call i32** @_ZN9__gnu_cxx13new_allocatorIPiE8allocateEmPKv(%"class.__gnu_cxx::new_allocator.1"* %4, i64 %5, i8* null)
  ret i32** %6
}

; Function Attrs: uwtable
define linkonce_odr i32** @_ZN9__gnu_cxx13new_allocatorIPiE8allocateEmPKv(%"class.__gnu_cxx::new_allocator.1"* %this, i64 %__n, i8*) #2 align 2 {
  %2 = alloca %"class.__gnu_cxx::new_allocator.1"*, align 8
  %3 = alloca i64, align 8
  %4 = alloca i8*, align 8
  store %"class.__gnu_cxx::new_allocator.1"* %this, %"class.__gnu_cxx::new_allocator.1"** %2, align 8
  store i64 %__n, i64* %3, align 8
  store i8* %0, i8** %4, align 8
  %5 = load %"class.__gnu_cxx::new_allocator.1"** %2
  %6 = load i64* %3, align 8
  %7 = call i64 @_ZNK9__gnu_cxx13new_allocatorIPiE8max_sizeEv(%"class.__gnu_cxx::new_allocator.1"* %5) #1
  %8 = icmp ugt i64 %6, %7
  br i1 %8, label %9, label %10

; <label>:9                                       ; preds = %1
  call void @_ZSt17__throw_bad_allocv() #14
  unreachable

; <label>:10                                      ; preds = %1
  %11 = load i64* %3, align 8
  %12 = mul i64 %11, 8
  %13 = call noalias i8* @_Znwm(i64 %12)
  %14 = bitcast i8* %13 to i32**
  ret i32** %14
}

; Function Attrs: nounwind uwtable
define linkonce_odr i64 @_ZNK9__gnu_cxx13new_allocatorIPiE8max_sizeEv(%"class.__gnu_cxx::new_allocator.1"* %this) #6 align 2 {
  %1 = alloca %"class.__gnu_cxx::new_allocator.1"*, align 8
  store %"class.__gnu_cxx::new_allocator.1"* %this, %"class.__gnu_cxx::new_allocator.1"** %1, align 8
  %2 = load %"class.__gnu_cxx::new_allocator.1"** %1
  ret i64 2305843009213693951
}

; Function Attrs: inlinehint uwtable
define linkonce_odr i32** @_ZSt23__copy_move_backward_a2ILb0EPPiS1_ET1_T0_S3_S2_(i32** %__first, i32** %__last, i32** %__result) #11 {
  %1 = alloca i32**, align 8
  %2 = alloca i32**, align 8
  %3 = alloca i32**, align 8
  store i32** %__first, i32*** %1, align 8
  store i32** %__last, i32*** %2, align 8
  store i32** %__result, i32*** %3, align 8
  %4 = load i32*** %1, align 8
  %5 = call i32** @_ZSt12__niter_baseIPPiENSt11_Niter_baseIT_E13iterator_typeES3_(i32** %4)
  %6 = load i32*** %2, align 8
  %7 = call i32** @_ZSt12__niter_baseIPPiENSt11_Niter_baseIT_E13iterator_typeES3_(i32** %6)
  %8 = load i32*** %3, align 8
  %9 = call i32** @_ZSt12__niter_baseIPPiENSt11_Niter_baseIT_E13iterator_typeES3_(i32** %8)
  %10 = call i32** @_ZSt22__copy_move_backward_aILb0EPPiS1_ET1_T0_S3_S2_(i32** %5, i32** %7, i32** %9)
  ret i32** %10
}

; Function Attrs: inlinehint uwtable
define linkonce_odr i32** @_ZSt12__miter_baseIPPiENSt11_Miter_baseIT_E13iterator_typeES3_(i32** %__it) #11 {
  %1 = alloca i32**, align 8
  store i32** %__it, i32*** %1, align 8
  %2 = load i32*** %1, align 8
  %3 = call i32** @_ZNSt10_Iter_baseIPPiLb0EE7_S_baseES1_(i32** %2)
  ret i32** %3
}

; Function Attrs: nounwind uwtable
define linkonce_odr i32** @_ZNSt10_Iter_baseIPPiLb0EE7_S_baseES1_(i32** %__it) #6 align 2 {
  %1 = alloca i32**, align 8
  store i32** %__it, i32*** %1, align 8
  %2 = load i32*** %1, align 8
  ret i32** %2
}

; Function Attrs: inlinehint uwtable
define linkonce_odr i32** @_ZSt22__copy_move_backward_aILb0EPPiS1_ET1_T0_S3_S2_(i32** %__first, i32** %__last, i32** %__result) #11 {
  %1 = alloca i32**, align 8
  %2 = alloca i32**, align 8
  %3 = alloca i32**, align 8
  %__simple = alloca i8, align 1
  store i32** %__first, i32*** %1, align 8
  store i32** %__last, i32*** %2, align 8
  store i32** %__result, i32*** %3, align 8
  store i8 1, i8* %__simple, align 1
  %4 = load i32*** %1, align 8
  %5 = load i32*** %2, align 8
  %6 = load i32*** %3, align 8
  %7 = call i32** @_ZNSt20__copy_move_backwardILb0ELb1ESt26random_access_iterator_tagE13__copy_move_bIPiEEPT_PKS4_S7_S5_(i32** %4, i32** %5, i32** %6)
  ret i32** %7
}

; Function Attrs: inlinehint nounwind uwtable
define linkonce_odr i32** @_ZSt12__niter_baseIPPiENSt11_Niter_baseIT_E13iterator_typeES3_(i32** %__it) #7 {
  %1 = alloca i32**, align 8
  store i32** %__it, i32*** %1, align 8
  %2 = load i32*** %1, align 8
  %3 = call i32** @_ZNSt10_Iter_baseIPPiLb0EE7_S_baseES1_(i32** %2)
  ret i32** %3
}

; Function Attrs: nounwind uwtable
define linkonce_odr i32** @_ZNSt20__copy_move_backwardILb0ELb1ESt26random_access_iterator_tagE13__copy_move_bIPiEEPT_PKS4_S7_S5_(i32** %__first, i32** %__last, i32** %__result) #6 align 2 {
  %1 = alloca i32**, align 8
  %2 = alloca i32**, align 8
  %3 = alloca i32**, align 8
  %_Num = alloca i64, align 8
  store i32** %__first, i32*** %1, align 8
  store i32** %__last, i32*** %2, align 8
  store i32** %__result, i32*** %3, align 8
  %4 = load i32*** %2, align 8
  %5 = load i32*** %1, align 8
  %6 = ptrtoint i32** %4 to i64
  %7 = ptrtoint i32** %5 to i64
  %8 = sub i64 %6, %7
  %9 = sdiv exact i64 %8, 8
  store i64 %9, i64* %_Num, align 8
  %10 = load i64* %_Num, align 8
  %11 = icmp ne i64 %10, 0
  br i1 %11, label %12, label %22

; <label>:12                                      ; preds = %0
  %13 = load i32*** %3, align 8
  %14 = load i64* %_Num, align 8
  %15 = sub i64 0, %14
  %16 = getelementptr inbounds i32** %13, i64 %15
  %17 = bitcast i32** %16 to i8*
  %18 = load i32*** %1, align 8
  %19 = bitcast i32** %18 to i8*
  %20 = load i64* %_Num, align 8
  %21 = mul i64 8, %20
  call void @llvm.memmove.p0i8.p0i8.i64(i8* %17, i8* %19, i64 %21, i32 8, i1 false)
  br label %22

; <label>:22                                      ; preds = %12, %0
  %23 = load i32*** %3, align 8
  %24 = load i64* %_Num, align 8
  %25 = sub i64 0, %24
  %26 = getelementptr inbounds i32** %23, i64 %25
  ret i32** %26
}

; Function Attrs: nounwind
declare void @llvm.memmove.p0i8.p0i8.i64(i8* nocapture, i8* nocapture readonly, i64, i32, i1) #1

; Function Attrs: inlinehint uwtable
define linkonce_odr i32** @_ZSt14__copy_move_a2ILb0EPPiS1_ET1_T0_S3_S2_(i32** %__first, i32** %__last, i32** %__result) #11 {
  %1 = alloca i32**, align 8
  %2 = alloca i32**, align 8
  %3 = alloca i32**, align 8
  store i32** %__first, i32*** %1, align 8
  store i32** %__last, i32*** %2, align 8
  store i32** %__result, i32*** %3, align 8
  %4 = load i32*** %1, align 8
  %5 = call i32** @_ZSt12__niter_baseIPPiENSt11_Niter_baseIT_E13iterator_typeES3_(i32** %4)
  %6 = load i32*** %2, align 8
  %7 = call i32** @_ZSt12__niter_baseIPPiENSt11_Niter_baseIT_E13iterator_typeES3_(i32** %6)
  %8 = load i32*** %3, align 8
  %9 = call i32** @_ZSt12__niter_baseIPPiENSt11_Niter_baseIT_E13iterator_typeES3_(i32** %8)
  %10 = call i32** @_ZSt13__copy_move_aILb0EPPiS1_ET1_T0_S3_S2_(i32** %5, i32** %7, i32** %9)
  ret i32** %10
}

; Function Attrs: inlinehint uwtable
define linkonce_odr i32** @_ZSt13__copy_move_aILb0EPPiS1_ET1_T0_S3_S2_(i32** %__first, i32** %__last, i32** %__result) #11 {
  %1 = alloca i32**, align 8
  %2 = alloca i32**, align 8
  %3 = alloca i32**, align 8
  %__simple = alloca i8, align 1
  store i32** %__first, i32*** %1, align 8
  store i32** %__last, i32*** %2, align 8
  store i32** %__result, i32*** %3, align 8
  store i8 1, i8* %__simple, align 1
  %4 = load i32*** %1, align 8
  %5 = load i32*** %2, align 8
  %6 = load i32*** %3, align 8
  %7 = call i32** @_ZNSt11__copy_moveILb0ELb1ESt26random_access_iterator_tagE8__copy_mIPiEEPT_PKS4_S7_S5_(i32** %4, i32** %5, i32** %6)
  ret i32** %7
}

; Function Attrs: nounwind uwtable
define linkonce_odr i32** @_ZNSt11__copy_moveILb0ELb1ESt26random_access_iterator_tagE8__copy_mIPiEEPT_PKS4_S7_S5_(i32** %__first, i32** %__last, i32** %__result) #6 align 2 {
  %1 = alloca i32**, align 8
  %2 = alloca i32**, align 8
  %3 = alloca i32**, align 8
  %_Num = alloca i64, align 8
  store i32** %__first, i32*** %1, align 8
  store i32** %__last, i32*** %2, align 8
  store i32** %__result, i32*** %3, align 8
  %4 = load i32*** %2, align 8
  %5 = load i32*** %1, align 8
  %6 = ptrtoint i32** %4 to i64
  %7 = ptrtoint i32** %5 to i64
  %8 = sub i64 %6, %7
  %9 = sdiv exact i64 %8, 8
  store i64 %9, i64* %_Num, align 8
  %10 = load i64* %_Num, align 8
  %11 = icmp ne i64 %10, 0
  br i1 %11, label %12, label %19

; <label>:12                                      ; preds = %0
  %13 = load i32*** %3, align 8
  %14 = bitcast i32** %13 to i8*
  %15 = load i32*** %1, align 8
  %16 = bitcast i32** %15 to i8*
  %17 = load i64* %_Num, align 8
  %18 = mul i64 8, %17
  call void @llvm.memmove.p0i8.p0i8.i64(i8* %14, i8* %16, i64 %18, i32 8, i1 false)
  br label %19

; <label>:19                                      ; preds = %12, %0
  %20 = load i32*** %3, align 8
  %21 = load i64* %_Num, align 8
  %22 = getelementptr inbounds i32** %20, i64 %21
  ret i32** %22
}

; Function Attrs: nounwind uwtable
define linkonce_odr void @_ZNSt5dequeIiSaIiEE15_M_destroy_dataESt15_Deque_iteratorIiRiPiES5_RKS0_(%"class.std::deque"* %this, %"struct.std::_Deque_iterator"* %__first, %"struct.std::_Deque_iterator"* %__last, %"class.std::allocator"*) #6 align 2 {
  %2 = alloca %"class.std::deque"*, align 8
  %3 = alloca %"class.std::allocator"*, align 8
  store %"class.std::deque"* %this, %"class.std::deque"** %2, align 8
  store %"class.std::allocator"* %0, %"class.std::allocator"** %3, align 8
  %4 = load %"class.std::deque"** %2
  ret void
}

; Function Attrs: uwtable
define linkonce_odr void @_ZNSt5dequeIiSaIiEE3endEv(%"struct.std::_Deque_iterator"* noalias sret %agg.result, %"class.std::deque"* %this) #2 align 2 {
  %1 = alloca %"class.std::deque"*, align 8
  store %"class.std::deque"* %this, %"class.std::deque"** %1, align 8
  %2 = load %"class.std::deque"** %1
  %3 = bitcast %"class.std::deque"* %2 to %"class.std::_Deque_base"*
  %4 = getelementptr inbounds %"class.std::_Deque_base"* %3, i32 0, i32 0
  %5 = getelementptr inbounds %"struct.std::_Deque_base<int, std::allocator<int> >::_Deque_impl"* %4, i32 0, i32 3
  call void @_ZNSt15_Deque_iteratorIiRiPiEC2ERKS2_(%"struct.std::_Deque_iterator"* %agg.result, %"struct.std::_Deque_iterator"* %5)
  ret void
}

; Function Attrs: uwtable
define linkonce_odr void @_ZNSt11_Deque_baseIiSaIiEED2Ev(%"class.std::_Deque_base"* %this) unnamed_addr #2 align 2 {
  %1 = alloca %"class.std::_Deque_base"*, align 8
  %2 = alloca i8*
  %3 = alloca i32
  store %"class.std::_Deque_base"* %this, %"class.std::_Deque_base"** %1, align 8
  %4 = load %"class.std::_Deque_base"** %1
  %5 = getelementptr inbounds %"class.std::_Deque_base"* %4, i32 0, i32 0
  %6 = getelementptr inbounds %"struct.std::_Deque_base<int, std::allocator<int> >::_Deque_impl"* %5, i32 0, i32 0
  %7 = load i32*** %6, align 8
  %8 = icmp ne i32** %7, null
  br i1 %8, label %9, label %32

; <label>:9                                       ; preds = %0
  %10 = getelementptr inbounds %"class.std::_Deque_base"* %4, i32 0, i32 0
  %11 = getelementptr inbounds %"struct.std::_Deque_base<int, std::allocator<int> >::_Deque_impl"* %10, i32 0, i32 2
  %12 = getelementptr inbounds %"struct.std::_Deque_iterator"* %11, i32 0, i32 3
  %13 = load i32*** %12, align 8
  %14 = getelementptr inbounds %"class.std::_Deque_base"* %4, i32 0, i32 0
  %15 = getelementptr inbounds %"struct.std::_Deque_base<int, std::allocator<int> >::_Deque_impl"* %14, i32 0, i32 3
  %16 = getelementptr inbounds %"struct.std::_Deque_iterator"* %15, i32 0, i32 3
  %17 = load i32*** %16, align 8
  %18 = getelementptr inbounds i32** %17, i64 1
  invoke void @_ZNSt11_Deque_baseIiSaIiEE16_M_destroy_nodesEPPiS3_(%"class.std::_Deque_base"* %4, i32** %13, i32** %18)
          to label %19 unwind label %27

; <label>:19                                      ; preds = %9
  %20 = getelementptr inbounds %"class.std::_Deque_base"* %4, i32 0, i32 0
  %21 = getelementptr inbounds %"struct.std::_Deque_base<int, std::allocator<int> >::_Deque_impl"* %20, i32 0, i32 0
  %22 = load i32*** %21, align 8
  %23 = getelementptr inbounds %"class.std::_Deque_base"* %4, i32 0, i32 0
  %24 = getelementptr inbounds %"struct.std::_Deque_base<int, std::allocator<int> >::_Deque_impl"* %23, i32 0, i32 1
  %25 = load i64* %24, align 8
  invoke void @_ZNSt11_Deque_baseIiSaIiEE17_M_deallocate_mapEPPim(%"class.std::_Deque_base"* %4, i32** %22, i64 %25)
          to label %26 unwind label %27

; <label>:26                                      ; preds = %19
  br label %32

; <label>:27                                      ; preds = %19, %9
  %28 = landingpad { i8*, i32 } personality i8* bitcast (i32 (...)* @__gxx_personality_v0 to i8*)
          cleanup
  %29 = extractvalue { i8*, i32 } %28, 0
  store i8* %29, i8** %2
  %30 = extractvalue { i8*, i32 } %28, 1
  store i32 %30, i32* %3
  %31 = getelementptr inbounds %"class.std::_Deque_base"* %4, i32 0, i32 0
  call void @_ZNSt11_Deque_baseIiSaIiEE11_Deque_implD2Ev(%"struct.std::_Deque_base<int, std::allocator<int> >::_Deque_impl"* %31) #1
  br label %34

; <label>:32                                      ; preds = %26, %0
  %33 = getelementptr inbounds %"class.std::_Deque_base"* %4, i32 0, i32 0
  call void @_ZNSt11_Deque_baseIiSaIiEE11_Deque_implD2Ev(%"struct.std::_Deque_base<int, std::allocator<int> >::_Deque_impl"* %33) #1
  ret void

; <label>:34                                      ; preds = %27
  %35 = load i8** %2
  %36 = load i32* %3
  %37 = insertvalue { i8*, i32 } undef, i8* %35, 0
  %38 = insertvalue { i8*, i32 } %37, i32 %36, 1
  resume { i8*, i32 } %38
}

; Function Attrs: uwtable
define linkonce_odr void @_ZNSt11_Deque_baseIiSaIiEE16_M_destroy_nodesEPPiS3_(%"class.std::_Deque_base"* %this, i32** %__nstart, i32** %__nfinish) #2 align 2 {
  %1 = alloca %"class.std::_Deque_base"*, align 8
  %2 = alloca i32**, align 8
  %3 = alloca i32**, align 8
  %__n = alloca i32**, align 8
  store %"class.std::_Deque_base"* %this, %"class.std::_Deque_base"** %1, align 8
  store i32** %__nstart, i32*** %2, align 8
  store i32** %__nfinish, i32*** %3, align 8
  %4 = load %"class.std::_Deque_base"** %1
  %5 = load i32*** %2, align 8
  store i32** %5, i32*** %__n, align 8
  br label %6

; <label>:6                                       ; preds = %13, %0
  %7 = load i32*** %__n, align 8
  %8 = load i32*** %3, align 8
  %9 = icmp ult i32** %7, %8
  br i1 %9, label %10, label %16

; <label>:10                                      ; preds = %6
  %11 = load i32*** %__n, align 8
  %12 = load i32** %11, align 8
  call void @_ZNSt11_Deque_baseIiSaIiEE18_M_deallocate_nodeEPi(%"class.std::_Deque_base"* %4, i32* %12)
  br label %13

; <label>:13                                      ; preds = %10
  %14 = load i32*** %__n, align 8
  %15 = getelementptr inbounds i32** %14, i32 1
  store i32** %15, i32*** %__n, align 8
  br label %6

; <label>:16                                      ; preds = %6
  ret void
}

; Function Attrs: inlinehint nounwind uwtable
define linkonce_odr void @_ZNSt11_Deque_baseIiSaIiEE11_Deque_implD2Ev(%"struct.std::_Deque_base<int, std::allocator<int> >::_Deque_impl"* %this) unnamed_addr #7 align 2 {
  %1 = alloca %"struct.std::_Deque_base<int, std::allocator<int> >::_Deque_impl"*, align 8
  store %"struct.std::_Deque_base<int, std::allocator<int> >::_Deque_impl"* %this, %"struct.std::_Deque_base<int, std::allocator<int> >::_Deque_impl"** %1, align 8
  %2 = load %"struct.std::_Deque_base<int, std::allocator<int> >::_Deque_impl"** %1
  %3 = bitcast %"struct.std::_Deque_base<int, std::allocator<int> >::_Deque_impl"* %2 to %"class.std::allocator"*
  call void @_ZNSaIiED2Ev(%"class.std::allocator"* %3) #1
  ret void
}

; Function Attrs: nounwind uwtable
define linkonce_odr void @_ZNSaIiED2Ev(%"class.std::allocator"* %this) unnamed_addr #6 align 2 {
  %1 = alloca %"class.std::allocator"*, align 8
  store %"class.std::allocator"* %this, %"class.std::allocator"** %1, align 8
  %2 = load %"class.std::allocator"** %1
  %3 = bitcast %"class.std::allocator"* %2 to %"class.__gnu_cxx::new_allocator"*
  call void @_ZN9__gnu_cxx13new_allocatorIiED2Ev(%"class.__gnu_cxx::new_allocator"* %3) #1
  ret void
}

; Function Attrs: nounwind uwtable
define linkonce_odr void @_ZN9__gnu_cxx13new_allocatorIiED2Ev(%"class.__gnu_cxx::new_allocator"* %this) unnamed_addr #6 align 2 {
  %1 = alloca %"class.__gnu_cxx::new_allocator"*, align 8
  store %"class.__gnu_cxx::new_allocator"* %this, %"class.__gnu_cxx::new_allocator"** %1, align 8
  %2 = load %"class.__gnu_cxx::new_allocator"** %1
  ret void
}

; Function Attrs: uwtable
define linkonce_odr void @_ZNSt11_Deque_baseIiSaIiEEC2Ev(%"class.std::_Deque_base"* %this) unnamed_addr #2 align 2 {
  %1 = alloca %"class.std::_Deque_base"*, align 8
  %2 = alloca i8*
  %3 = alloca i32
  store %"class.std::_Deque_base"* %this, %"class.std::_Deque_base"** %1, align 8
  %4 = load %"class.std::_Deque_base"** %1
  %5 = getelementptr inbounds %"class.std::_Deque_base"* %4, i32 0, i32 0
  call void @_ZNSt11_Deque_baseIiSaIiEE11_Deque_implC2Ev(%"struct.std::_Deque_base<int, std::allocator<int> >::_Deque_impl"* %5)
  invoke void @_ZNSt11_Deque_baseIiSaIiEE17_M_initialize_mapEm(%"class.std::_Deque_base"* %4, i64 0)
          to label %6 unwind label %7

; <label>:6                                       ; preds = %0
  ret void

; <label>:7                                       ; preds = %0
  %8 = landingpad { i8*, i32 } personality i8* bitcast (i32 (...)* @__gxx_personality_v0 to i8*)
          cleanup
  %9 = extractvalue { i8*, i32 } %8, 0
  store i8* %9, i8** %2
  %10 = extractvalue { i8*, i32 } %8, 1
  store i32 %10, i32* %3
  call void @_ZNSt11_Deque_baseIiSaIiEE11_Deque_implD2Ev(%"struct.std::_Deque_base<int, std::allocator<int> >::_Deque_impl"* %5) #1
  br label %11

; <label>:11                                      ; preds = %7
  %12 = load i8** %2
  %13 = load i32* %3
  %14 = insertvalue { i8*, i32 } undef, i8* %12, 0
  %15 = insertvalue { i8*, i32 } %14, i32 %13, 1
  resume { i8*, i32 } %15
}

; Function Attrs: uwtable
define linkonce_odr void @_ZNSt11_Deque_baseIiSaIiEE11_Deque_implC2Ev(%"struct.std::_Deque_base<int, std::allocator<int> >::_Deque_impl"* %this) unnamed_addr #2 align 2 {
  %1 = alloca %"struct.std::_Deque_base<int, std::allocator<int> >::_Deque_impl"*, align 8
  %2 = alloca i8*
  %3 = alloca i32
  store %"struct.std::_Deque_base<int, std::allocator<int> >::_Deque_impl"* %this, %"struct.std::_Deque_base<int, std::allocator<int> >::_Deque_impl"** %1, align 8
  %4 = load %"struct.std::_Deque_base<int, std::allocator<int> >::_Deque_impl"** %1
  %5 = bitcast %"struct.std::_Deque_base<int, std::allocator<int> >::_Deque_impl"* %4 to %"class.std::allocator"*
  call void @_ZNSaIiEC2Ev(%"class.std::allocator"* %5) #1
  %6 = getelementptr inbounds %"struct.std::_Deque_base<int, std::allocator<int> >::_Deque_impl"* %4, i32 0, i32 0
  store i32** null, i32*** %6, align 8
  %7 = getelementptr inbounds %"struct.std::_Deque_base<int, std::allocator<int> >::_Deque_impl"* %4, i32 0, i32 1
  store i64 0, i64* %7, align 8
  %8 = getelementptr inbounds %"struct.std::_Deque_base<int, std::allocator<int> >::_Deque_impl"* %4, i32 0, i32 2
  invoke void @_ZNSt15_Deque_iteratorIiRiPiEC2Ev(%"struct.std::_Deque_iterator"* %8)
          to label %9 unwind label %12

; <label>:9                                       ; preds = %0
  %10 = getelementptr inbounds %"struct.std::_Deque_base<int, std::allocator<int> >::_Deque_impl"* %4, i32 0, i32 3
  invoke void @_ZNSt15_Deque_iteratorIiRiPiEC2Ev(%"struct.std::_Deque_iterator"* %10)
          to label %11 unwind label %12

; <label>:11                                      ; preds = %9
  ret void

; <label>:12                                      ; preds = %9, %0
  %13 = landingpad { i8*, i32 } personality i8* bitcast (i32 (...)* @__gxx_personality_v0 to i8*)
          cleanup
  %14 = extractvalue { i8*, i32 } %13, 0
  store i8* %14, i8** %2
  %15 = extractvalue { i8*, i32 } %13, 1
  store i32 %15, i32* %3
  %16 = bitcast %"struct.std::_Deque_base<int, std::allocator<int> >::_Deque_impl"* %4 to %"class.std::allocator"*
  call void @_ZNSaIiED2Ev(%"class.std::allocator"* %16) #1
  br label %17

; <label>:17                                      ; preds = %12
  %18 = load i8** %2
  %19 = load i32* %3
  %20 = insertvalue { i8*, i32 } undef, i8* %18, 0
  %21 = insertvalue { i8*, i32 } %20, i32 %19, 1
  resume { i8*, i32 } %21
}

; Function Attrs: uwtable
define linkonce_odr void @_ZNSt11_Deque_baseIiSaIiEE17_M_initialize_mapEm(%"class.std::_Deque_base"* %this, i64 %__num_elements) #2 align 2 {
  %1 = alloca %"class.std::_Deque_base"*, align 8
  %2 = alloca i64, align 8
  %__num_nodes = alloca i64, align 8
  %3 = alloca i64, align 8
  %4 = alloca i64, align 8
  %__nstart = alloca i32**, align 8
  %__nfinish = alloca i32**, align 8
  store %"class.std::_Deque_base"* %this, %"class.std::_Deque_base"** %1, align 8
  store i64 %__num_elements, i64* %2, align 8
  %5 = load %"class.std::_Deque_base"** %1
  %6 = load i64* %2, align 8
  %7 = call i64 @_ZSt16__deque_buf_sizem(i64 4)
  %8 = udiv i64 %6, %7
  %9 = add i64 %8, 1
  store i64 %9, i64* %__num_nodes, align 8
  store i64 8, i64* %3
  %10 = load i64* %__num_nodes, align 8
  %11 = add i64 %10, 2
  store i64 %11, i64* %4
  %12 = call i64* @_ZSt3maxImERKT_S2_S2_(i64* %3, i64* %4)
  %13 = load i64* %12
  %14 = getelementptr inbounds %"class.std::_Deque_base"* %5, i32 0, i32 0
  %15 = getelementptr inbounds %"struct.std::_Deque_base<int, std::allocator<int> >::_Deque_impl"* %14, i32 0, i32 1
  store i64 %13, i64* %15, align 8
  %16 = getelementptr inbounds %"class.std::_Deque_base"* %5, i32 0, i32 0
  %17 = getelementptr inbounds %"struct.std::_Deque_base<int, std::allocator<int> >::_Deque_impl"* %16, i32 0, i32 1
  %18 = load i64* %17, align 8
  %19 = call i32** @_ZNSt11_Deque_baseIiSaIiEE15_M_allocate_mapEm(%"class.std::_Deque_base"* %5, i64 %18)
  %20 = getelementptr inbounds %"class.std::_Deque_base"* %5, i32 0, i32 0
  %21 = getelementptr inbounds %"struct.std::_Deque_base<int, std::allocator<int> >::_Deque_impl"* %20, i32 0, i32 0
  store i32** %19, i32*** %21, align 8
  %22 = getelementptr inbounds %"class.std::_Deque_base"* %5, i32 0, i32 0
  %23 = getelementptr inbounds %"struct.std::_Deque_base<int, std::allocator<int> >::_Deque_impl"* %22, i32 0, i32 0
  %24 = load i32*** %23, align 8
  %25 = getelementptr inbounds %"class.std::_Deque_base"* %5, i32 0, i32 0
  %26 = getelementptr inbounds %"struct.std::_Deque_base<int, std::allocator<int> >::_Deque_impl"* %25, i32 0, i32 1
  %27 = load i64* %26, align 8
  %28 = load i64* %__num_nodes, align 8
  %29 = sub i64 %27, %28
  %30 = udiv i64 %29, 2
  %31 = getelementptr inbounds i32** %24, i64 %30
  store i32** %31, i32*** %__nstart, align 8
  %32 = load i32*** %__nstart, align 8
  %33 = load i64* %__num_nodes, align 8
  %34 = getelementptr inbounds i32** %32, i64 %33
  store i32** %34, i32*** %__nfinish, align 8
  %35 = load i32*** %__nstart, align 8
  %36 = load i32*** %__nfinish, align 8
  call void @_ZNSt11_Deque_baseIiSaIiEE15_M_create_nodesEPPiS3_(%"class.std::_Deque_base"* %5, i32** %35, i32** %36)
  %37 = getelementptr inbounds %"class.std::_Deque_base"* %5, i32 0, i32 0
  %38 = getelementptr inbounds %"struct.std::_Deque_base<int, std::allocator<int> >::_Deque_impl"* %37, i32 0, i32 2
  %39 = load i32*** %__nstart, align 8
  call void @_ZNSt15_Deque_iteratorIiRiPiE11_M_set_nodeEPS1_(%"struct.std::_Deque_iterator"* %38, i32** %39)
  %40 = getelementptr inbounds %"class.std::_Deque_base"* %5, i32 0, i32 0
  %41 = getelementptr inbounds %"struct.std::_Deque_base<int, std::allocator<int> >::_Deque_impl"* %40, i32 0, i32 3
  %42 = load i32*** %__nfinish, align 8
  %43 = getelementptr inbounds i32** %42, i64 -1
  call void @_ZNSt15_Deque_iteratorIiRiPiE11_M_set_nodeEPS1_(%"struct.std::_Deque_iterator"* %41, i32** %43)
  %44 = getelementptr inbounds %"class.std::_Deque_base"* %5, i32 0, i32 0
  %45 = getelementptr inbounds %"struct.std::_Deque_base<int, std::allocator<int> >::_Deque_impl"* %44, i32 0, i32 2
  %46 = getelementptr inbounds %"struct.std::_Deque_iterator"* %45, i32 0, i32 1
  %47 = load i32** %46, align 8
  %48 = getelementptr inbounds %"class.std::_Deque_base"* %5, i32 0, i32 0
  %49 = getelementptr inbounds %"struct.std::_Deque_base<int, std::allocator<int> >::_Deque_impl"* %48, i32 0, i32 2
  %50 = getelementptr inbounds %"struct.std::_Deque_iterator"* %49, i32 0, i32 0
  store i32* %47, i32** %50, align 8
  %51 = getelementptr inbounds %"class.std::_Deque_base"* %5, i32 0, i32 0
  %52 = getelementptr inbounds %"struct.std::_Deque_base<int, std::allocator<int> >::_Deque_impl"* %51, i32 0, i32 3
  %53 = getelementptr inbounds %"struct.std::_Deque_iterator"* %52, i32 0, i32 1
  %54 = load i32** %53, align 8
  %55 = load i64* %2, align 8
  %56 = call i64 @_ZSt16__deque_buf_sizem(i64 4)
  %57 = urem i64 %55, %56
  %58 = getelementptr inbounds i32* %54, i64 %57
  %59 = getelementptr inbounds %"class.std::_Deque_base"* %5, i32 0, i32 0
  %60 = getelementptr inbounds %"struct.std::_Deque_base<int, std::allocator<int> >::_Deque_impl"* %59, i32 0, i32 3
  %61 = getelementptr inbounds %"struct.std::_Deque_iterator"* %60, i32 0, i32 0
  store i32* %58, i32** %61, align 8
  ret void
}

; Function Attrs: uwtable
define linkonce_odr void @_ZNSt11_Deque_baseIiSaIiEE15_M_create_nodesEPPiS3_(%"class.std::_Deque_base"* %this, i32** %__nstart, i32** %__nfinish) #2 align 2 {
  %1 = alloca %"class.std::_Deque_base"*, align 8
  %2 = alloca i32**, align 8
  %3 = alloca i32**, align 8
  %__cur = alloca i32**, align 8
  store %"class.std::_Deque_base"* %this, %"class.std::_Deque_base"** %1, align 8
  store i32** %__nstart, i32*** %2, align 8
  store i32** %__nfinish, i32*** %3, align 8
  %4 = load %"class.std::_Deque_base"** %1
  %5 = load i32*** %2, align 8
  store i32** %5, i32*** %__cur, align 8
  br label %6

; <label>:6                                       ; preds = %13, %0
  %7 = load i32*** %__cur, align 8
  %8 = load i32*** %3, align 8
  %9 = icmp ult i32** %7, %8
  br i1 %9, label %10, label %16

; <label>:10                                      ; preds = %6
  %11 = call i32* @_ZNSt11_Deque_baseIiSaIiEE16_M_allocate_nodeEv(%"class.std::_Deque_base"* %4)
  %12 = load i32*** %__cur, align 8
  store i32* %11, i32** %12, align 8
  br label %13

; <label>:13                                      ; preds = %10
  %14 = load i32*** %__cur, align 8
  %15 = getelementptr inbounds i32** %14, i32 1
  store i32** %15, i32*** %__cur, align 8
  br label %6

; <label>:16                                      ; preds = %6
  ret void
}

; Function Attrs: nounwind uwtable
define linkonce_odr void @_ZNSaIiEC2Ev(%"class.std::allocator"* %this) unnamed_addr #6 align 2 {
  %1 = alloca %"class.std::allocator"*, align 8
  store %"class.std::allocator"* %this, %"class.std::allocator"** %1, align 8
  %2 = load %"class.std::allocator"** %1
  %3 = bitcast %"class.std::allocator"* %2 to %"class.__gnu_cxx::new_allocator"*
  call void @_ZN9__gnu_cxx13new_allocatorIiEC2Ev(%"class.__gnu_cxx::new_allocator"* %3) #1
  ret void
}

; Function Attrs: nounwind uwtable
define linkonce_odr void @_ZNSt15_Deque_iteratorIiRiPiEC2Ev(%"struct.std::_Deque_iterator"* %this) unnamed_addr #6 align 2 {
  %1 = alloca %"struct.std::_Deque_iterator"*, align 8
  store %"struct.std::_Deque_iterator"* %this, %"struct.std::_Deque_iterator"** %1, align 8
  %2 = load %"struct.std::_Deque_iterator"** %1
  %3 = getelementptr inbounds %"struct.std::_Deque_iterator"* %2, i32 0, i32 0
  store i32* null, i32** %3, align 8
  %4 = getelementptr inbounds %"struct.std::_Deque_iterator"* %2, i32 0, i32 1
  store i32* null, i32** %4, align 8
  %5 = getelementptr inbounds %"struct.std::_Deque_iterator"* %2, i32 0, i32 2
  store i32* null, i32** %5, align 8
  %6 = getelementptr inbounds %"struct.std::_Deque_iterator"* %2, i32 0, i32 3
  store i32** null, i32*** %6, align 8
  ret void
}

; Function Attrs: nounwind uwtable
define linkonce_odr void @_ZN9__gnu_cxx13new_allocatorIiEC2Ev(%"class.__gnu_cxx::new_allocator"* %this) unnamed_addr #6 align 2 {
  %1 = alloca %"class.__gnu_cxx::new_allocator"*, align 8
  store %"class.__gnu_cxx::new_allocator"* %this, %"class.__gnu_cxx::new_allocator"** %1, align 8
  %2 = load %"class.__gnu_cxx::new_allocator"** %1
  ret void
}

define internal void @_GLOBAL__I_a() section ".text.startup" {
  call void @__cxx_global_var_init()
  ret void
}

; Function Attrs: uwtable
define %struct.pb_Parameters* @pb_ReadParameters(i32* %_argc, i8** %argv) #2 {
  %1 = alloca %struct.pb_Parameters*, align 8
  %2 = alloca i32*, align 8
  %3 = alloca i8**, align 8
  %err_message = alloca i8*, align 8
  %ap = alloca %struct.argparse, align 8
  %ret = alloca %struct.pb_Parameters*, align 8
  %arg = alloca i8*, align 8
  store i32* %_argc, i32** %2, align 8
  store i8** %argv, i8*** %3, align 8
  %4 = call noalias i8* @malloc(i64 16) #1
  %5 = bitcast i8* %4 to %struct.pb_Parameters*
  store %struct.pb_Parameters* %5, %struct.pb_Parameters** %ret, align 8
  %6 = load %struct.pb_Parameters** %ret, align 8
  %7 = getelementptr inbounds %struct.pb_Parameters* %6, i32 0, i32 0
  store i8* null, i8** %7, align 8
  %8 = call noalias i8* @malloc(i64 8) #1
  %9 = bitcast i8* %8 to i8**
  %10 = load %struct.pb_Parameters** %ret, align 8
  %11 = getelementptr inbounds %struct.pb_Parameters* %10, i32 0, i32 1
  store i8** %9, i8*** %11, align 8
  %12 = load %struct.pb_Parameters** %ret, align 8
  %13 = getelementptr inbounds %struct.pb_Parameters* %12, i32 0, i32 1
  %14 = load i8*** %13, align 8
  %15 = getelementptr inbounds i8** %14, i64 0
  store i8* null, i8** %15, align 8
  %16 = load i32** %2, align 8
  %17 = load i32* %16, align 4
  %18 = load i8*** %3, align 8
  call void @_ZL19initialize_argparseP8argparseiPPc(%struct.argparse* %ap, i32 %17, i8** %18)
  br label %19

; <label>:19                                      ; preds = %72, %0
  %20 = call i32 @_ZL19is_end_of_argumentsP8argparse(%struct.argparse* %ap)
  %21 = icmp ne i32 %20, 0
  %22 = xor i1 %21, true
  br i1 %22, label %23, label %73

; <label>:23                                      ; preds = %19
  %24 = call i8* @_ZL12get_argumentP8argparse(%struct.argparse* %ap)
  store i8* %24, i8** %arg, align 8
  %25 = load i8** %arg, align 8
  %26 = getelementptr inbounds i8* %25, i64 0
  %27 = load i8* %26, align 1
  %28 = sext i8 %27 to i32
  %29 = icmp eq i32 %28, 45
  br i1 %29, label %30, label %71

; <label>:30                                      ; preds = %23
  %31 = load i8** %arg, align 8
  %32 = getelementptr inbounds i8* %31, i64 1
  %33 = load i8* %32, align 1
  %34 = sext i8 %33 to i32
  %35 = icmp ne i32 %34, 0
  br i1 %35, label %36, label %71

; <label>:36                                      ; preds = %30
  %37 = load i8** %arg, align 8
  %38 = getelementptr inbounds i8* %37, i64 2
  %39 = load i8* %38, align 1
  %40 = sext i8 %39 to i32
  %41 = icmp eq i32 %40, 0
  br i1 %41, label %42, label %71

; <label>:42                                      ; preds = %36
  call void @_ZL15delete_argumentP8argparse(%struct.argparse* %ap)
  %43 = load i8** %arg, align 8
  %44 = getelementptr inbounds i8* %43, i64 1
  %45 = load i8* %44, align 1
  %46 = sext i8 %45 to i32
  switch i32 %46, label %69 [
    i32 111, label %47
    i32 105, label %59
    i32 45, label %68
  ]

; <label>:47                                      ; preds = %42
  %48 = call i32 @_ZL19is_end_of_argumentsP8argparse(%struct.argparse* %ap)
  %49 = icmp ne i32 %48, 0
  br i1 %49, label %50, label %51

; <label>:50                                      ; preds = %47
  store i8* getelementptr inbounds ([32 x i8]* @.str8, i32 0, i32 0), i8** %err_message, align 8
  br label %79

; <label>:51                                      ; preds = %47
  %52 = load %struct.pb_Parameters** %ret, align 8
  %53 = getelementptr inbounds %struct.pb_Parameters* %52, i32 0, i32 0
  %54 = load i8** %53, align 8
  call void @free(i8* %54) #1
  %55 = call i8* @_ZL16consume_argumentP8argparse(%struct.argparse* %ap)
  %56 = call noalias i8* @strdup(i8* %55) #1
  %57 = load %struct.pb_Parameters** %ret, align 8
  %58 = getelementptr inbounds %struct.pb_Parameters* %57, i32 0, i32 0
  store i8* %56, i8** %58, align 8
  br label %70

; <label>:59                                      ; preds = %42
  %60 = call i32 @_ZL19is_end_of_argumentsP8argparse(%struct.argparse* %ap)
  %61 = icmp ne i32 %60, 0
  br i1 %61, label %62, label %63

; <label>:62                                      ; preds = %59
  store i8* getelementptr inbounds ([32 x i8]* @.str19, i32 0, i32 0), i8** %err_message, align 8
  br label %79

; <label>:63                                      ; preds = %59
  %64 = call i8* @_ZL16consume_argumentP8argparse(%struct.argparse* %ap)
  %65 = call i8** @_ZL17read_string_arrayPc(i8* %64)
  %66 = load %struct.pb_Parameters** %ret, align 8
  %67 = getelementptr inbounds %struct.pb_Parameters* %66, i32 0, i32 1
  store i8** %65, i8*** %67, align 8
  br label %70

; <label>:68                                      ; preds = %42
  br label %74

; <label>:69                                      ; preds = %42
  store i8* getelementptr inbounds ([35 x i8]* @.str210, i32 0, i32 0), i8** %err_message, align 8
  br label %79

; <label>:70                                      ; preds = %63, %51
  br label %72

; <label>:71                                      ; preds = %36, %30, %23
  call void @_ZL13next_argumentP8argparse(%struct.argparse* %ap)
  br label %72

; <label>:72                                      ; preds = %71, %70
  br label %19

; <label>:73                                      ; preds = %19
  br label %74

; <label>:74                                      ; preds = %73, %68
  %75 = getelementptr inbounds %struct.argparse* %ap, i32 0, i32 0
  %76 = load i32* %75, align 4
  %77 = load i32** %2, align 8
  store i32 %76, i32* %77, align 4
  call void @_ZL17finalize_argparseP8argparse(%struct.argparse* %ap)
  %78 = load %struct.pb_Parameters** %ret, align 8
  store %struct.pb_Parameters* %78, %struct.pb_Parameters** %1
  br label %84

; <label>:79                                      ; preds = %69, %62, %50
  %80 = load i8** %err_message, align 8
  %81 = load %struct._IO_FILE** @stderr, align 8
  %82 = call i32 @fputs(i8* %80, %struct._IO_FILE* %81)
  %83 = load %struct.pb_Parameters** %ret, align 8
  call void @pb_FreeParameters(%struct.pb_Parameters* %83)
  store %struct.pb_Parameters* null, %struct.pb_Parameters** %1
  br label %84

; <label>:84                                      ; preds = %79, %74
  %85 = load %struct.pb_Parameters** %1
  ret %struct.pb_Parameters* %85
}

; Function Attrs: nounwind
declare noalias i8* @strdup(i8*) #5

declare i32 @fputs(i8*, %struct._IO_FILE*) #0

; Function Attrs: uwtable
define void @pb_FreeParameters(%struct.pb_Parameters* %p) #2 {
  %1 = alloca %struct.pb_Parameters*, align 8
  %cpp = alloca i8**, align 8
  store %struct.pb_Parameters* %p, %struct.pb_Parameters** %1, align 8
  %2 = load %struct.pb_Parameters** %1, align 8
  %3 = getelementptr inbounds %struct.pb_Parameters* %2, i32 0, i32 0
  %4 = load i8** %3, align 8
  call void @free(i8* %4) #1
  %5 = load %struct.pb_Parameters** %1, align 8
  %6 = getelementptr inbounds %struct.pb_Parameters* %5, i32 0, i32 1
  %7 = load i8*** %6, align 8
  call void @_ZL17free_string_arrayPPc(i8** %7)
  %8 = load %struct.pb_Parameters** %1, align 8
  %9 = bitcast %struct.pb_Parameters* %8 to i8*
  call void @free(i8* %9) #1
  ret void
}

; Function Attrs: nounwind uwtable
define i32 @pb_Parameters_CountInputs(%struct.pb_Parameters* %p) #6 {
  %1 = alloca %struct.pb_Parameters*, align 8
  %n = alloca i32, align 4
  store %struct.pb_Parameters* %p, %struct.pb_Parameters** %1, align 8
  store i32 0, i32* %n, align 4
  br label %2

; <label>:2                                       ; preds = %12, %0
  %3 = load i32* %n, align 4
  %4 = sext i32 %3 to i64
  %5 = load %struct.pb_Parameters** %1, align 8
  %6 = getelementptr inbounds %struct.pb_Parameters* %5, i32 0, i32 1
  %7 = load i8*** %6, align 8
  %8 = getelementptr inbounds i8** %7, i64 %4
  %9 = load i8** %8, align 8
  %10 = icmp ne i8* %9, null
  br i1 %10, label %11, label %15

; <label>:11                                      ; preds = %2
  br label %12

; <label>:12                                      ; preds = %11
  %13 = load i32* %n, align 4
  %14 = add nsw i32 %13, 1
  store i32 %14, i32* %n, align 4
  br label %2

; <label>:15                                      ; preds = %2
  %16 = load i32* %n, align 4
  ret i32 %16
}

; Function Attrs: nounwind uwtable
define void @pb_ResetTimer(%struct.pb_Timer* %timer) #6 {
  %1 = alloca %struct.pb_Timer*, align 8
  store %struct.pb_Timer* %timer, %struct.pb_Timer** %1, align 8
  %2 = load %struct.pb_Timer** %1, align 8
  %3 = getelementptr inbounds %struct.pb_Timer* %2, i32 0, i32 0
  store i32 0, i32* %3, align 4
  %4 = load %struct.pb_Timer** %1, align 8
  %5 = getelementptr inbounds %struct.pb_Timer* %4, i32 0, i32 1
  store i64 0, i64* %5, align 8
  ret void
}

; Function Attrs: uwtable
define void @pb_StartTimer(%struct.pb_Timer* %timer) #2 {
  %1 = alloca %struct.pb_Timer*, align 8
  %tv = alloca %struct.timeval, align 8
  store %struct.pb_Timer* %timer, %struct.pb_Timer** %1, align 8
  %2 = load %struct.pb_Timer** %1, align 8
  %3 = getelementptr inbounds %struct.pb_Timer* %2, i32 0, i32 0
  %4 = load i32* %3, align 4
  %5 = icmp ne i32 %4, 0
  br i1 %5, label %6, label %9

; <label>:6                                       ; preds = %0
  %7 = load %struct._IO_FILE** @stderr, align 8
  %8 = call i32 @fputs(i8* getelementptr inbounds ([43 x i8]* @.str311, i32 0, i32 0), %struct._IO_FILE* %7)
  br label %21

; <label>:9                                       ; preds = %0
  %10 = load %struct.pb_Timer** %1, align 8
  %11 = getelementptr inbounds %struct.pb_Timer* %10, i32 0, i32 0
  store i32 1, i32* %11, align 4
  %12 = call i32 @gettimeofday(%struct.timeval* %tv, %struct.timezone* null) #1
  %13 = getelementptr inbounds %struct.timeval* %tv, i32 0, i32 0
  %14 = load i64* %13, align 8
  %15 = mul nsw i64 %14, 1000000
  %16 = getelementptr inbounds %struct.timeval* %tv, i32 0, i32 1
  %17 = load i64* %16, align 8
  %18 = add nsw i64 %15, %17
  %19 = load %struct.pb_Timer** %1, align 8
  %20 = getelementptr inbounds %struct.pb_Timer* %19, i32 0, i32 2
  store i64 %18, i64* %20, align 8
  br label %21

; <label>:21                                      ; preds = %9, %6
  ret void
}

; Function Attrs: nounwind
declare i32 @gettimeofday(%struct.timeval*, %struct.timezone*) #5

; Function Attrs: uwtable
define void @_Z24pb_StartTimerAndSubTimerP8pb_TimerS0_(%struct.pb_Timer* %timer, %struct.pb_Timer* %subtimer) #2 {
  %1 = alloca %struct.pb_Timer*, align 8
  %2 = alloca %struct.pb_Timer*, align 8
  %numNotStopped = alloca i32, align 4
  %tv = alloca %struct.timeval, align 8
  store %struct.pb_Timer* %timer, %struct.pb_Timer** %1, align 8
  store %struct.pb_Timer* %subtimer, %struct.pb_Timer** %2, align 8
  store i32 3, i32* %numNotStopped, align 4
  %3 = load %struct.pb_Timer** %1, align 8
  %4 = getelementptr inbounds %struct.pb_Timer* %3, i32 0, i32 0
  %5 = load i32* %4, align 4
  %6 = icmp ne i32 %5, 0
  br i1 %6, label %7, label %12

; <label>:7                                       ; preds = %0
  %8 = load %struct._IO_FILE** @stderr, align 8
  %9 = call i32 @fputs(i8* getelementptr inbounds ([32 x i8]* @.str412, i32 0, i32 0), %struct._IO_FILE* %8)
  %10 = load i32* %numNotStopped, align 4
  %11 = and i32 %10, 1
  store i32 %11, i32* %numNotStopped, align 4
  br label %12

; <label>:12                                      ; preds = %7, %0
  %13 = load %struct.pb_Timer** %2, align 8
  %14 = getelementptr inbounds %struct.pb_Timer* %13, i32 0, i32 0
  %15 = load i32* %14, align 4
  %16 = icmp ne i32 %15, 0
  br i1 %16, label %17, label %22

; <label>:17                                      ; preds = %12
  %18 = load %struct._IO_FILE** @stderr, align 8
  %19 = call i32 @fputs(i8* getelementptr inbounds ([35 x i8]* @.str513, i32 0, i32 0), %struct._IO_FILE* %18)
  %20 = load i32* %numNotStopped, align 4
  %21 = and i32 %20, 2
  store i32 %21, i32* %numNotStopped, align 4
  br label %22

; <label>:22                                      ; preds = %17, %12
  %23 = load i32* %numNotStopped, align 4
  %24 = icmp eq i32 %23, 0
  br i1 %24, label %25, label %28

; <label>:25                                      ; preds = %22
  %26 = load %struct._IO_FILE** @stderr, align 8
  %27 = call i32 @fputs(i8* getelementptr inbounds ([54 x i8]* @.str614, i32 0, i32 0), %struct._IO_FILE* %26)
  br label %59

; <label>:28                                      ; preds = %22
  %29 = load %struct.pb_Timer** %1, align 8
  %30 = getelementptr inbounds %struct.pb_Timer* %29, i32 0, i32 0
  store i32 1, i32* %30, align 4
  %31 = load %struct.pb_Timer** %2, align 8
  %32 = getelementptr inbounds %struct.pb_Timer* %31, i32 0, i32 0
  store i32 1, i32* %32, align 4
  %33 = call i32 @gettimeofday(%struct.timeval* %tv, %struct.timezone* null) #1
  %34 = load i32* %numNotStopped, align 4
  %35 = and i32 %34, 2
  %36 = icmp ne i32 %35, 0
  br i1 %36, label %37, label %46

; <label>:37                                      ; preds = %28
  %38 = getelementptr inbounds %struct.timeval* %tv, i32 0, i32 0
  %39 = load i64* %38, align 8
  %40 = mul nsw i64 %39, 1000000
  %41 = getelementptr inbounds %struct.timeval* %tv, i32 0, i32 1
  %42 = load i64* %41, align 8
  %43 = add nsw i64 %40, %42
  %44 = load %struct.pb_Timer** %1, align 8
  %45 = getelementptr inbounds %struct.pb_Timer* %44, i32 0, i32 2
  store i64 %43, i64* %45, align 8
  br label %46

; <label>:46                                      ; preds = %37, %28
  %47 = load i32* %numNotStopped, align 4
  %48 = and i32 %47, 1
  %49 = icmp ne i32 %48, 0
  br i1 %49, label %50, label %59

; <label>:50                                      ; preds = %46
  %51 = getelementptr inbounds %struct.timeval* %tv, i32 0, i32 0
  %52 = load i64* %51, align 8
  %53 = mul nsw i64 %52, 1000000
  %54 = getelementptr inbounds %struct.timeval* %tv, i32 0, i32 1
  %55 = load i64* %54, align 8
  %56 = add nsw i64 %53, %55
  %57 = load %struct.pb_Timer** %2, align 8
  %58 = getelementptr inbounds %struct.pb_Timer* %57, i32 0, i32 2
  store i64 %56, i64* %58, align 8
  br label %59

; <label>:59                                      ; preds = %50, %46, %25
  ret void
}

; Function Attrs: uwtable
define void @pb_StopTimer(%struct.pb_Timer* %timer) #2 {
  %1 = alloca %struct.pb_Timer*, align 8
  %fini = alloca i64, align 8
  %tv = alloca %struct.timeval, align 8
  store %struct.pb_Timer* %timer, %struct.pb_Timer** %1, align 8
  %2 = load %struct.pb_Timer** %1, align 8
  %3 = getelementptr inbounds %struct.pb_Timer* %2, i32 0, i32 0
  %4 = load i32* %3, align 4
  %5 = icmp ne i32 %4, 1
  br i1 %5, label %6, label %9

; <label>:6                                       ; preds = %0
  %7 = load %struct._IO_FILE** @stderr, align 8
  %8 = call i32 @fputs(i8* getelementptr inbounds ([42 x i8]* @.str715, i32 0, i32 0), %struct._IO_FILE* %7)
  br label %28

; <label>:9                                       ; preds = %0
  %10 = load %struct.pb_Timer** %1, align 8
  %11 = getelementptr inbounds %struct.pb_Timer* %10, i32 0, i32 0
  store i32 0, i32* %11, align 4
  %12 = call i32 @gettimeofday(%struct.timeval* %tv, %struct.timezone* null) #1
  %13 = getelementptr inbounds %struct.timeval* %tv, i32 0, i32 0
  %14 = load i64* %13, align 8
  %15 = mul nsw i64 %14, 1000000
  %16 = getelementptr inbounds %struct.timeval* %tv, i32 0, i32 1
  %17 = load i64* %16, align 8
  %18 = add nsw i64 %15, %17
  store i64 %18, i64* %fini, align 8
  %19 = load %struct.pb_Timer** %1, align 8
  %20 = getelementptr inbounds %struct.pb_Timer* %19, i32 0, i32 1
  %21 = load %struct.pb_Timer** %1, align 8
  %22 = getelementptr inbounds %struct.pb_Timer* %21, i32 0, i32 2
  %23 = load i64* %22, align 8
  %24 = load i64* %fini, align 8
  call void @_ZL15accumulate_timePyyy(i64* %20, i64 %23, i64 %24)
  %25 = load i64* %fini, align 8
  %26 = load %struct.pb_Timer** %1, align 8
  %27 = getelementptr inbounds %struct.pb_Timer* %26, i32 0, i32 2
  store i64 %25, i64* %27, align 8
  br label %28

; <label>:28                                      ; preds = %9, %6
  ret void
}

; Function Attrs: uwtable
define void @_Z23pb_StopTimerAndSubTimerP8pb_TimerS0_(%struct.pb_Timer* %timer, %struct.pb_Timer* %subtimer) #2 {
  %1 = alloca %struct.pb_Timer*, align 8
  %2 = alloca %struct.pb_Timer*, align 8
  %fini = alloca i64, align 8
  %numNotRunning = alloca i32, align 4
  %tv = alloca %struct.timeval, align 8
  store %struct.pb_Timer* %timer, %struct.pb_Timer** %1, align 8
  store %struct.pb_Timer* %subtimer, %struct.pb_Timer** %2, align 8
  store i32 3, i32* %numNotRunning, align 4
  %3 = load %struct.pb_Timer** %1, align 8
  %4 = getelementptr inbounds %struct.pb_Timer* %3, i32 0, i32 0
  %5 = load i32* %4, align 4
  %6 = icmp ne i32 %5, 1
  br i1 %6, label %7, label %12

; <label>:7                                       ; preds = %0
  %8 = load %struct._IO_FILE** @stderr, align 8
  %9 = call i32 @fputs(i8* getelementptr inbounds ([32 x i8]* @.str816, i32 0, i32 0), %struct._IO_FILE* %8)
  %10 = load i32* %numNotRunning, align 4
  %11 = and i32 %10, 1
  store i32 %11, i32* %numNotRunning, align 4
  br label %12

; <label>:12                                      ; preds = %7, %0
  %13 = load %struct.pb_Timer** %2, align 8
  %14 = getelementptr inbounds %struct.pb_Timer* %13, i32 0, i32 0
  %15 = load i32* %14, align 4
  %16 = icmp ne i32 %15, 1
  br i1 %16, label %17, label %22

; <label>:17                                      ; preds = %12
  %18 = load %struct._IO_FILE** @stderr, align 8
  %19 = call i32 @fputs(i8* getelementptr inbounds ([35 x i8]* @.str9, i32 0, i32 0), %struct._IO_FILE* %18)
  %20 = load i32* %numNotRunning, align 4
  %21 = and i32 %20, 2
  store i32 %21, i32* %numNotRunning, align 4
  br label %22

; <label>:22                                      ; preds = %17, %12
  %23 = load i32* %numNotRunning, align 4
  %24 = icmp eq i32 %23, 0
  br i1 %24, label %25, label %28

; <label>:25                                      ; preds = %22
  %26 = load %struct._IO_FILE** @stderr, align 8
  %27 = call i32 @fputs(i8* getelementptr inbounds ([53 x i8]* @.str10, i32 0, i32 0), %struct._IO_FILE* %26)
  br label %67

; <label>:28                                      ; preds = %22
  %29 = load %struct.pb_Timer** %1, align 8
  %30 = getelementptr inbounds %struct.pb_Timer* %29, i32 0, i32 0
  store i32 0, i32* %30, align 4
  %31 = load %struct.pb_Timer** %2, align 8
  %32 = getelementptr inbounds %struct.pb_Timer* %31, i32 0, i32 0
  store i32 0, i32* %32, align 4
  %33 = call i32 @gettimeofday(%struct.timeval* %tv, %struct.timezone* null) #1
  %34 = getelementptr inbounds %struct.timeval* %tv, i32 0, i32 0
  %35 = load i64* %34, align 8
  %36 = mul nsw i64 %35, 1000000
  %37 = getelementptr inbounds %struct.timeval* %tv, i32 0, i32 1
  %38 = load i64* %37, align 8
  %39 = add nsw i64 %36, %38
  store i64 %39, i64* %fini, align 8
  %40 = load i32* %numNotRunning, align 4
  %41 = and i32 %40, 2
  %42 = icmp ne i32 %41, 0
  br i1 %42, label %43, label %53

; <label>:43                                      ; preds = %28
  %44 = load %struct.pb_Timer** %1, align 8
  %45 = getelementptr inbounds %struct.pb_Timer* %44, i32 0, i32 1
  %46 = load %struct.pb_Timer** %1, align 8
  %47 = getelementptr inbounds %struct.pb_Timer* %46, i32 0, i32 2
  %48 = load i64* %47, align 8
  %49 = load i64* %fini, align 8
  call void @_ZL15accumulate_timePyyy(i64* %45, i64 %48, i64 %49)
  %50 = load i64* %fini, align 8
  %51 = load %struct.pb_Timer** %1, align 8
  %52 = getelementptr inbounds %struct.pb_Timer* %51, i32 0, i32 2
  store i64 %50, i64* %52, align 8
  br label %53

; <label>:53                                      ; preds = %43, %28
  %54 = load i32* %numNotRunning, align 4
  %55 = and i32 %54, 1
  %56 = icmp ne i32 %55, 0
  br i1 %56, label %57, label %67

; <label>:57                                      ; preds = %53
  %58 = load %struct.pb_Timer** %2, align 8
  %59 = getelementptr inbounds %struct.pb_Timer* %58, i32 0, i32 1
  %60 = load %struct.pb_Timer** %2, align 8
  %61 = getelementptr inbounds %struct.pb_Timer* %60, i32 0, i32 2
  %62 = load i64* %61, align 8
  %63 = load i64* %fini, align 8
  call void @_ZL15accumulate_timePyyy(i64* %59, i64 %62, i64 %63)
  %64 = load i64* %fini, align 8
  %65 = load %struct.pb_Timer** %2, align 8
  %66 = getelementptr inbounds %struct.pb_Timer* %65, i32 0, i32 2
  store i64 %64, i64* %66, align 8
  br label %67

; <label>:67                                      ; preds = %57, %53, %25
  ret void
}

; Function Attrs: uwtable
define double @pb_GetElapsedTime(%struct.pb_Timer* %timer) #2 {
  %1 = alloca %struct.pb_Timer*, align 8
  %ret = alloca double, align 8
  store %struct.pb_Timer* %timer, %struct.pb_Timer** %1, align 8
  %2 = load %struct.pb_Timer** %1, align 8
  %3 = getelementptr inbounds %struct.pb_Timer* %2, i32 0, i32 0
  %4 = load i32* %3, align 4
  %5 = icmp ne i32 %4, 0
  br i1 %5, label %6, label %9

; <label>:6                                       ; preds = %0
  %7 = load %struct._IO_FILE** @stderr, align 8
  %8 = call i32 @fputs(i8* getelementptr inbounds ([49 x i8]* @.str11, i32 0, i32 0), %struct._IO_FILE* %7)
  br label %9

; <label>:9                                       ; preds = %6, %0
  %10 = load %struct.pb_Timer** %1, align 8
  %11 = getelementptr inbounds %struct.pb_Timer* %10, i32 0, i32 1
  %12 = load i64* %11, align 8
  %13 = uitofp i64 %12 to double
  %14 = fdiv double %13, 1.000000e+06
  store double %14, double* %ret, align 8
  %15 = load double* %ret, align 8
  ret double %15
}

; Function Attrs: uwtable
define void @pb_InitializeTimerSet(%struct.pb_TimerSet* %timers) #2 {
  %1 = alloca %struct.pb_TimerSet*, align 8
  %n = alloca i32, align 4
  store %struct.pb_TimerSet* %timers, %struct.pb_TimerSet** %1, align 8
  %2 = call i64 @_ZL8get_timev()
  %3 = load %struct.pb_TimerSet** %1, align 8
  %4 = getelementptr inbounds %struct.pb_TimerSet* %3, i32 0, i32 3
  store i64 %2, i64* %4, align 8
  %5 = load %struct.pb_TimerSet** %1, align 8
  %6 = getelementptr inbounds %struct.pb_TimerSet* %5, i32 0, i32 0
  store i32 0, i32* %6, align 4
  %7 = load %struct.pb_TimerSet** %1, align 8
  %8 = getelementptr inbounds %struct.pb_TimerSet* %7, i32 0, i32 1
  store %struct.pb_async_time_marker_list* null, %struct.pb_async_time_marker_list** %8, align 8
  store i32 0, i32* %n, align 4
  br label %9

; <label>:9                                       ; preds = %23, %0
  %10 = load i32* %n, align 4
  %11 = icmp slt i32 %10, 8
  br i1 %11, label %12, label %26

; <label>:12                                      ; preds = %9
  %13 = load i32* %n, align 4
  %14 = sext i32 %13 to i64
  %15 = load %struct.pb_TimerSet** %1, align 8
  %16 = getelementptr inbounds %struct.pb_TimerSet* %15, i32 0, i32 4
  %17 = getelementptr inbounds [8 x %struct.pb_Timer]* %16, i32 0, i64 %14
  call void @pb_ResetTimer(%struct.pb_Timer* %17)
  %18 = load i32* %n, align 4
  %19 = sext i32 %18 to i64
  %20 = load %struct.pb_TimerSet** %1, align 8
  %21 = getelementptr inbounds %struct.pb_TimerSet* %20, i32 0, i32 5
  %22 = getelementptr inbounds [8 x %struct.pb_SubTimerList*]* %21, i32 0, i64 %19
  store %struct.pb_SubTimerList* null, %struct.pb_SubTimerList** %22, align 8
  br label %23

; <label>:23                                      ; preds = %12
  %24 = load i32* %n, align 4
  %25 = add nsw i32 %24, 1
  store i32 %25, i32* %n, align 4
  br label %9

; <label>:26                                      ; preds = %9
  ret void
}

; Function Attrs: nounwind uwtable
define void @pb_AddSubTimer(%struct.pb_TimerSet* %timers, i8* %label, i32 %pb_Category) #6 {
  %1 = alloca %struct.pb_TimerSet*, align 8
  %2 = alloca i8*, align 8
  %3 = alloca i32, align 4
  %subtimer = alloca %struct.pb_SubTimer*, align 8
  %len = alloca i32, align 4
  %subtimerlist = alloca %struct.pb_SubTimerList*, align 8
  %element = alloca %struct.pb_SubTimer*, align 8
  store %struct.pb_TimerSet* %timers, %struct.pb_TimerSet** %1, align 8
  store i8* %label, i8** %2, align 8
  store i32 %pb_Category, i32* %3, align 4
  %4 = call noalias i8* @malloc(i64 40) #1
  %5 = bitcast i8* %4 to %struct.pb_SubTimer*
  store %struct.pb_SubTimer* %5, %struct.pb_SubTimer** %subtimer, align 8
  %6 = load i8** %2, align 8
  %7 = call i64 @strlen(i8* %6) #15
  %8 = trunc i64 %7 to i32
  store i32 %8, i32* %len, align 4
  %9 = load i32* %len, align 4
  %10 = add nsw i32 %9, 1
  %11 = sext i32 %10 to i64
  %12 = mul i64 1, %11
  %13 = call noalias i8* @malloc(i64 %12) #1
  %14 = load %struct.pb_SubTimer** %subtimer, align 8
  %15 = getelementptr inbounds %struct.pb_SubTimer* %14, i32 0, i32 0
  store i8* %13, i8** %15, align 8
  %16 = load %struct.pb_SubTimer** %subtimer, align 8
  %17 = getelementptr inbounds %struct.pb_SubTimer* %16, i32 0, i32 0
  %18 = load i8** %17, align 8
  %19 = load i8** %2, align 8
  %20 = call i32 (i8*, i8*, ...)* @sprintf(i8* %18, i8* getelementptr inbounds ([4 x i8]* @.str12, i32 0, i32 0), i8* %19) #1
  %21 = load %struct.pb_SubTimer** %subtimer, align 8
  %22 = getelementptr inbounds %struct.pb_SubTimer* %21, i32 0, i32 1
  call void @pb_ResetTimer(%struct.pb_Timer* %22)
  %23 = load %struct.pb_SubTimer** %subtimer, align 8
  %24 = getelementptr inbounds %struct.pb_SubTimer* %23, i32 0, i32 2
  store %struct.pb_SubTimer* null, %struct.pb_SubTimer** %24, align 8
  %25 = load i32* %3, align 4
  %26 = zext i32 %25 to i64
  %27 = load %struct.pb_TimerSet** %1, align 8
  %28 = getelementptr inbounds %struct.pb_TimerSet* %27, i32 0, i32 5
  %29 = getelementptr inbounds [8 x %struct.pb_SubTimerList*]* %28, i32 0, i64 %26
  %30 = load %struct.pb_SubTimerList** %29, align 8
  store %struct.pb_SubTimerList* %30, %struct.pb_SubTimerList** %subtimerlist, align 8
  %31 = load %struct.pb_SubTimerList** %subtimerlist, align 8
  %32 = icmp eq %struct.pb_SubTimerList* %31, null
  br i1 %32, label %33, label %45

; <label>:33                                      ; preds = %0
  %34 = call noalias i8* @malloc(i64 16) #1
  %35 = bitcast i8* %34 to %struct.pb_SubTimerList*
  store %struct.pb_SubTimerList* %35, %struct.pb_SubTimerList** %subtimerlist, align 8
  %36 = load %struct.pb_SubTimer** %subtimer, align 8
  %37 = load %struct.pb_SubTimerList** %subtimerlist, align 8
  %38 = getelementptr inbounds %struct.pb_SubTimerList* %37, i32 0, i32 1
  store %struct.pb_SubTimer* %36, %struct.pb_SubTimer** %38, align 8
  %39 = load %struct.pb_SubTimerList** %subtimerlist, align 8
  %40 = load i32* %3, align 4
  %41 = zext i32 %40 to i64
  %42 = load %struct.pb_TimerSet** %1, align 8
  %43 = getelementptr inbounds %struct.pb_TimerSet* %42, i32 0, i32 5
  %44 = getelementptr inbounds [8 x %struct.pb_SubTimerList*]* %43, i32 0, i64 %41
  store %struct.pb_SubTimerList* %39, %struct.pb_SubTimerList** %44, align 8
  br label %62

; <label>:45                                      ; preds = %0
  %46 = load %struct.pb_SubTimerList** %subtimerlist, align 8
  %47 = getelementptr inbounds %struct.pb_SubTimerList* %46, i32 0, i32 1
  %48 = load %struct.pb_SubTimer** %47, align 8
  store %struct.pb_SubTimer* %48, %struct.pb_SubTimer** %element, align 8
  br label %49

; <label>:49                                      ; preds = %54, %45
  %50 = load %struct.pb_SubTimer** %element, align 8
  %51 = getelementptr inbounds %struct.pb_SubTimer* %50, i32 0, i32 2
  %52 = load %struct.pb_SubTimer** %51, align 8
  %53 = icmp ne %struct.pb_SubTimer* %52, null
  br i1 %53, label %54, label %58

; <label>:54                                      ; preds = %49
  %55 = load %struct.pb_SubTimer** %element, align 8
  %56 = getelementptr inbounds %struct.pb_SubTimer* %55, i32 0, i32 2
  %57 = load %struct.pb_SubTimer** %56, align 8
  store %struct.pb_SubTimer* %57, %struct.pb_SubTimer** %element, align 8
  br label %49

; <label>:58                                      ; preds = %49
  %59 = load %struct.pb_SubTimer** %subtimer, align 8
  %60 = load %struct.pb_SubTimer** %element, align 8
  %61 = getelementptr inbounds %struct.pb_SubTimer* %60, i32 0, i32 2
  store %struct.pb_SubTimer* %59, %struct.pb_SubTimer** %61, align 8
  br label %62

; <label>:62                                      ; preds = %58, %33
  ret void
}

; Function Attrs: nounwind readonly
declare i64 @strlen(i8*) #12

; Function Attrs: nounwind
declare i32 @sprintf(i8*, i8*, ...) #5

; Function Attrs: uwtable
define void @pb_SwitchToSubTimer(%struct.pb_TimerSet* %timers, i8* %label, i32 %category) #2 {
  %1 = alloca %struct.pb_TimerSet*, align 8
  %2 = alloca i8*, align 8
  %3 = alloca i32, align 4
  %topLevelToStop = alloca %struct.pb_Timer*, align 8
  %subtimerlist = alloca %struct.pb_SubTimerList*, align 8
  %curr = alloca %struct.pb_SubTimer*, align 8
  %subtimer = alloca %struct.pb_SubTimer*, align 8
  store %struct.pb_TimerSet* %timers, %struct.pb_TimerSet** %1, align 8
  store i8* %label, i8** %2, align 8
  store i32 %category, i32* %3, align 4
  store %struct.pb_Timer* null, %struct.pb_Timer** %topLevelToStop, align 8
  %4 = load %struct.pb_TimerSet** %1, align 8
  %5 = getelementptr inbounds %struct.pb_TimerSet* %4, i32 0, i32 0
  %6 = load i32* %5, align 4
  %7 = load i32* %3, align 4
  %8 = icmp ne i32 %6, %7
  br i1 %8, label %9, label %22

; <label>:9                                       ; preds = %0
  %10 = load %struct.pb_TimerSet** %1, align 8
  %11 = getelementptr inbounds %struct.pb_TimerSet* %10, i32 0, i32 0
  %12 = load i32* %11, align 4
  %13 = icmp ne i32 %12, 0
  br i1 %13, label %14, label %22

; <label>:14                                      ; preds = %9
  %15 = load %struct.pb_TimerSet** %1, align 8
  %16 = getelementptr inbounds %struct.pb_TimerSet* %15, i32 0, i32 0
  %17 = load i32* %16, align 4
  %18 = zext i32 %17 to i64
  %19 = load %struct.pb_TimerSet** %1, align 8
  %20 = getelementptr inbounds %struct.pb_TimerSet* %19, i32 0, i32 4
  %21 = getelementptr inbounds [8 x %struct.pb_Timer]* %20, i32 0, i64 %18
  store %struct.pb_Timer* %21, %struct.pb_Timer** %topLevelToStop, align 8
  br label %22

; <label>:22                                      ; preds = %14, %9, %0
  %23 = load %struct.pb_TimerSet** %1, align 8
  %24 = getelementptr inbounds %struct.pb_TimerSet* %23, i32 0, i32 0
  %25 = load i32* %24, align 4
  %26 = zext i32 %25 to i64
  %27 = load %struct.pb_TimerSet** %1, align 8
  %28 = getelementptr inbounds %struct.pb_TimerSet* %27, i32 0, i32 5
  %29 = getelementptr inbounds [8 x %struct.pb_SubTimerList*]* %28, i32 0, i64 %26
  %30 = load %struct.pb_SubTimerList** %29, align 8
  store %struct.pb_SubTimerList* %30, %struct.pb_SubTimerList** %subtimerlist, align 8
  %31 = load %struct.pb_SubTimerList** %subtimerlist, align 8
  %32 = icmp eq %struct.pb_SubTimerList* %31, null
  br i1 %32, label %33, label %34

; <label>:33                                      ; preds = %22
  br label %38

; <label>:34                                      ; preds = %22
  %35 = load %struct.pb_SubTimerList** %subtimerlist, align 8
  %36 = getelementptr inbounds %struct.pb_SubTimerList* %35, i32 0, i32 0
  %37 = load %struct.pb_SubTimer** %36, align 8
  br label %38

; <label>:38                                      ; preds = %34, %33
  %39 = phi %struct.pb_SubTimer* [ null, %33 ], [ %37, %34 ]
  store %struct.pb_SubTimer* %39, %struct.pb_SubTimer** %curr, align 8
  %40 = load %struct.pb_TimerSet** %1, align 8
  %41 = getelementptr inbounds %struct.pb_TimerSet* %40, i32 0, i32 0
  %42 = load i32* %41, align 4
  %43 = icmp ne i32 %42, 0
  br i1 %43, label %44, label %64

; <label>:44                                      ; preds = %38
  %45 = load %struct.pb_SubTimer** %curr, align 8
  %46 = icmp ne %struct.pb_SubTimer* %45, null
  br i1 %46, label %47, label %54

; <label>:47                                      ; preds = %44
  %48 = load %struct.pb_Timer** %topLevelToStop, align 8
  %49 = icmp ne %struct.pb_Timer* %48, null
  br i1 %49, label %50, label %54

; <label>:50                                      ; preds = %47
  %51 = load %struct.pb_Timer** %topLevelToStop, align 8
  %52 = load %struct.pb_SubTimer** %curr, align 8
  %53 = getelementptr inbounds %struct.pb_SubTimer* %52, i32 0, i32 1
  call void @_Z23pb_StopTimerAndSubTimerP8pb_TimerS0_(%struct.pb_Timer* %51, %struct.pb_Timer* %53)
  br label %63

; <label>:54                                      ; preds = %47, %44
  %55 = load %struct.pb_SubTimer** %curr, align 8
  %56 = icmp ne %struct.pb_SubTimer* %55, null
  br i1 %56, label %57, label %60

; <label>:57                                      ; preds = %54
  %58 = load %struct.pb_SubTimer** %curr, align 8
  %59 = getelementptr inbounds %struct.pb_SubTimer* %58, i32 0, i32 1
  call void @pb_StopTimer(%struct.pb_Timer* %59)
  br label %62

; <label>:60                                      ; preds = %54
  %61 = load %struct.pb_Timer** %topLevelToStop, align 8
  call void @pb_StopTimer(%struct.pb_Timer* %61)
  br label %62

; <label>:62                                      ; preds = %60, %57
  br label %63

; <label>:63                                      ; preds = %62, %50
  br label %64

; <label>:64                                      ; preds = %63, %38
  %65 = load i32* %3, align 4
  %66 = zext i32 %65 to i64
  %67 = load %struct.pb_TimerSet** %1, align 8
  %68 = getelementptr inbounds %struct.pb_TimerSet* %67, i32 0, i32 5
  %69 = getelementptr inbounds [8 x %struct.pb_SubTimerList*]* %68, i32 0, i64 %66
  %70 = load %struct.pb_SubTimerList** %69, align 8
  store %struct.pb_SubTimerList* %70, %struct.pb_SubTimerList** %subtimerlist, align 8
  store %struct.pb_SubTimer* null, %struct.pb_SubTimer** %subtimer, align 8
  %71 = load i8** %2, align 8
  %72 = icmp ne i8* %71, null
  br i1 %72, label %73, label %94

; <label>:73                                      ; preds = %64
  %74 = load %struct.pb_SubTimerList** %subtimerlist, align 8
  %75 = getelementptr inbounds %struct.pb_SubTimerList* %74, i32 0, i32 1
  %76 = load %struct.pb_SubTimer** %75, align 8
  store %struct.pb_SubTimer* %76, %struct.pb_SubTimer** %subtimer, align 8
  br label %77

; <label>:77                                      ; preds = %92, %73
  %78 = load %struct.pb_SubTimer** %subtimer, align 8
  %79 = icmp ne %struct.pb_SubTimer* %78, null
  br i1 %79, label %80, label %93

; <label>:80                                      ; preds = %77
  %81 = load %struct.pb_SubTimer** %subtimer, align 8
  %82 = getelementptr inbounds %struct.pb_SubTimer* %81, i32 0, i32 0
  %83 = load i8** %82, align 8
  %84 = load i8** %2, align 8
  %85 = call i32 @strcmp(i8* %83, i8* %84) #15
  %86 = icmp eq i32 %85, 0
  br i1 %86, label %87, label %88

; <label>:87                                      ; preds = %80
  br label %93

; <label>:88                                      ; preds = %80
  %89 = load %struct.pb_SubTimer** %subtimer, align 8
  %90 = getelementptr inbounds %struct.pb_SubTimer* %89, i32 0, i32 2
  %91 = load %struct.pb_SubTimer** %90, align 8
  store %struct.pb_SubTimer* %91, %struct.pb_SubTimer** %subtimer, align 8
  br label %92

; <label>:92                                      ; preds = %88
  br label %77

; <label>:93                                      ; preds = %87, %77
  br label %94

; <label>:94                                      ; preds = %93, %64
  %95 = load i32* %3, align 4
  %96 = icmp ne i32 %95, 0
  br i1 %96, label %97, label %135

; <label>:97                                      ; preds = %94
  %98 = load %struct.pb_SubTimerList** %subtimerlist, align 8
  %99 = icmp ne %struct.pb_SubTimerList* %98, null
  br i1 %99, label %100, label %104

; <label>:100                                     ; preds = %97
  %101 = load %struct.pb_SubTimer** %subtimer, align 8
  %102 = load %struct.pb_SubTimerList** %subtimerlist, align 8
  %103 = getelementptr inbounds %struct.pb_SubTimerList* %102, i32 0, i32 0
  store %struct.pb_SubTimer* %101, %struct.pb_SubTimer** %103, align 8
  br label %104

; <label>:104                                     ; preds = %100, %97
  %105 = load i32* %3, align 4
  %106 = load %struct.pb_TimerSet** %1, align 8
  %107 = getelementptr inbounds %struct.pb_TimerSet* %106, i32 0, i32 0
  %108 = load i32* %107, align 4
  %109 = icmp ne i32 %105, %108
  br i1 %109, label %110, label %121

; <label>:110                                     ; preds = %104
  %111 = load %struct.pb_SubTimer** %subtimer, align 8
  %112 = icmp ne %struct.pb_SubTimer* %111, null
  br i1 %112, label %113, label %121

; <label>:113                                     ; preds = %110
  %114 = load i32* %3, align 4
  %115 = zext i32 %114 to i64
  %116 = load %struct.pb_TimerSet** %1, align 8
  %117 = getelementptr inbounds %struct.pb_TimerSet* %116, i32 0, i32 4
  %118 = getelementptr inbounds [8 x %struct.pb_Timer]* %117, i32 0, i64 %115
  %119 = load %struct.pb_SubTimer** %subtimer, align 8
  %120 = getelementptr inbounds %struct.pb_SubTimer* %119, i32 0, i32 1
  call void @_Z24pb_StartTimerAndSubTimerP8pb_TimerS0_(%struct.pb_Timer* %118, %struct.pb_Timer* %120)
  br label %134

; <label>:121                                     ; preds = %110, %104
  %122 = load %struct.pb_SubTimer** %subtimer, align 8
  %123 = icmp ne %struct.pb_SubTimer* %122, null
  br i1 %123, label %124, label %127

; <label>:124                                     ; preds = %121
  %125 = load %struct.pb_SubTimer** %subtimer, align 8
  %126 = getelementptr inbounds %struct.pb_SubTimer* %125, i32 0, i32 1
  call void @pb_StartTimer(%struct.pb_Timer* %126)
  br label %133

; <label>:127                                     ; preds = %121
  %128 = load i32* %3, align 4
  %129 = zext i32 %128 to i64
  %130 = load %struct.pb_TimerSet** %1, align 8
  %131 = getelementptr inbounds %struct.pb_TimerSet* %130, i32 0, i32 4
  %132 = getelementptr inbounds [8 x %struct.pb_Timer]* %131, i32 0, i64 %129
  call void @pb_StartTimer(%struct.pb_Timer* %132)
  br label %133

; <label>:133                                     ; preds = %127, %124
  br label %134

; <label>:134                                     ; preds = %133, %113
  br label %135

; <label>:135                                     ; preds = %134, %94
  %136 = load i32* %3, align 4
  %137 = load %struct.pb_TimerSet** %1, align 8
  %138 = getelementptr inbounds %struct.pb_TimerSet* %137, i32 0, i32 0
  store i32 %136, i32* %138, align 4
  ret void
}

; Function Attrs: nounwind readonly
declare i32 @strcmp(i8*, i8*) #12

; Function Attrs: uwtable
define void @pb_SwitchToTimer(%struct.pb_TimerSet* %timers, i32 %timer) #2 {
  %1 = alloca %struct.pb_TimerSet*, align 8
  %2 = alloca i32, align 4
  %currSubTimer = alloca %struct.pb_SubTimer*, align 8
  %subtimerlist = alloca %struct.pb_SubTimerList*, align 8
  store %struct.pb_TimerSet* %timers, %struct.pb_TimerSet** %1, align 8
  store i32 %timer, i32* %2, align 4
  %3 = load %struct.pb_TimerSet** %1, align 8
  %4 = getelementptr inbounds %struct.pb_TimerSet* %3, i32 0, i32 0
  %5 = load i32* %4, align 4
  %6 = icmp ne i32 %5, 0
  br i1 %6, label %7, label %51

; <label>:7                                       ; preds = %0
  store %struct.pb_SubTimer* null, %struct.pb_SubTimer** %currSubTimer, align 8
  %8 = load %struct.pb_TimerSet** %1, align 8
  %9 = getelementptr inbounds %struct.pb_TimerSet* %8, i32 0, i32 0
  %10 = load i32* %9, align 4
  %11 = zext i32 %10 to i64
  %12 = load %struct.pb_TimerSet** %1, align 8
  %13 = getelementptr inbounds %struct.pb_TimerSet* %12, i32 0, i32 5
  %14 = getelementptr inbounds [8 x %struct.pb_SubTimerList*]* %13, i32 0, i64 %11
  %15 = load %struct.pb_SubTimerList** %14, align 8
  store %struct.pb_SubTimerList* %15, %struct.pb_SubTimerList** %subtimerlist, align 8
  %16 = load %struct.pb_SubTimerList** %subtimerlist, align 8
  %17 = icmp ne %struct.pb_SubTimerList* %16, null
  br i1 %17, label %18, label %29

; <label>:18                                      ; preds = %7
  %19 = load %struct.pb_TimerSet** %1, align 8
  %20 = getelementptr inbounds %struct.pb_TimerSet* %19, i32 0, i32 0
  %21 = load i32* %20, align 4
  %22 = zext i32 %21 to i64
  %23 = load %struct.pb_TimerSet** %1, align 8
  %24 = getelementptr inbounds %struct.pb_TimerSet* %23, i32 0, i32 5
  %25 = getelementptr inbounds [8 x %struct.pb_SubTimerList*]* %24, i32 0, i64 %22
  %26 = load %struct.pb_SubTimerList** %25, align 8
  %27 = getelementptr inbounds %struct.pb_SubTimerList* %26, i32 0, i32 0
  %28 = load %struct.pb_SubTimer** %27, align 8
  store %struct.pb_SubTimer* %28, %struct.pb_SubTimer** %currSubTimer, align 8
  br label %29

; <label>:29                                      ; preds = %18, %7
  %30 = load %struct.pb_SubTimer** %currSubTimer, align 8
  %31 = icmp ne %struct.pb_SubTimer* %30, null
  br i1 %31, label %32, label %42

; <label>:32                                      ; preds = %29
  %33 = load %struct.pb_TimerSet** %1, align 8
  %34 = getelementptr inbounds %struct.pb_TimerSet* %33, i32 0, i32 0
  %35 = load i32* %34, align 4
  %36 = zext i32 %35 to i64
  %37 = load %struct.pb_TimerSet** %1, align 8
  %38 = getelementptr inbounds %struct.pb_TimerSet* %37, i32 0, i32 4
  %39 = getelementptr inbounds [8 x %struct.pb_Timer]* %38, i32 0, i64 %36
  %40 = load %struct.pb_SubTimer** %currSubTimer, align 8
  %41 = getelementptr inbounds %struct.pb_SubTimer* %40, i32 0, i32 1
  call void @_Z23pb_StopTimerAndSubTimerP8pb_TimerS0_(%struct.pb_Timer* %39, %struct.pb_Timer* %41)
  br label %50

; <label>:42                                      ; preds = %29
  %43 = load %struct.pb_TimerSet** %1, align 8
  %44 = getelementptr inbounds %struct.pb_TimerSet* %43, i32 0, i32 0
  %45 = load i32* %44, align 4
  %46 = zext i32 %45 to i64
  %47 = load %struct.pb_TimerSet** %1, align 8
  %48 = getelementptr inbounds %struct.pb_TimerSet* %47, i32 0, i32 4
  %49 = getelementptr inbounds [8 x %struct.pb_Timer]* %48, i32 0, i64 %46
  call void @pb_StopTimer(%struct.pb_Timer* %49)
  br label %50

; <label>:50                                      ; preds = %42, %32
  br label %51

; <label>:51                                      ; preds = %50, %0
  %52 = load i32* %2, align 4
  %53 = load %struct.pb_TimerSet** %1, align 8
  %54 = getelementptr inbounds %struct.pb_TimerSet* %53, i32 0, i32 0
  store i32 %52, i32* %54, align 4
  %55 = load i32* %2, align 4
  %56 = icmp ne i32 %55, 0
  br i1 %56, label %57, label %63

; <label>:57                                      ; preds = %51
  %58 = load i32* %2, align 4
  %59 = zext i32 %58 to i64
  %60 = load %struct.pb_TimerSet** %1, align 8
  %61 = getelementptr inbounds %struct.pb_TimerSet* %60, i32 0, i32 4
  %62 = getelementptr inbounds [8 x %struct.pb_Timer]* %61, i32 0, i64 %59
  call void @pb_StartTimer(%struct.pb_Timer* %62)
  br label %63

; <label>:63                                      ; preds = %57, %51
  ret void
}

; Function Attrs: uwtable
define void @pb_PrintTimerSet(%struct.pb_TimerSet* %timers) #2 {
  %1 = alloca %struct.pb_TimerSet*, align 8
  %wall_end = alloca i64, align 8
  %t = alloca %struct.pb_Timer*, align 8
  %sub = alloca %struct.pb_SubTimer*, align 8
  %maxSubLength = alloca i32, align 4
  %categories = alloca [6 x i8*], align 16
  %maxCategoryLength = alloca i32, align 4
  %i = alloca i32, align 4
  %walltime = alloca float, align 4
  store %struct.pb_TimerSet* %timers, %struct.pb_TimerSet** %1, align 8
  %2 = call i64 @_ZL8get_timev()
  store i64 %2, i64* %wall_end, align 8
  %3 = load %struct.pb_TimerSet** %1, align 8
  %4 = getelementptr inbounds %struct.pb_TimerSet* %3, i32 0, i32 4
  %5 = getelementptr inbounds [8 x %struct.pb_Timer]* %4, i32 0, i32 0
  store %struct.pb_Timer* %5, %struct.pb_Timer** %t, align 8
  store %struct.pb_SubTimer* null, %struct.pb_SubTimer** %sub, align 8
  %6 = bitcast [6 x i8*]* %categories to i8*
  call void @llvm.memset.p0i8.i64(i8* %6, i8 0, i64 48, i32 16, i1 false)
  %7 = bitcast i8* %6 to [6 x i8*]*
  %8 = getelementptr [6 x i8*]* %7, i32 0, i32 0
  store i8* getelementptr inbounds ([3 x i8]* @.str13, i32 0, i32 0), i8** %8
  %9 = getelementptr [6 x i8*]* %7, i32 0, i32 1
  store i8* getelementptr inbounds ([7 x i8]* @.str14, i32 0, i32 0), i8** %9
  %10 = getelementptr [6 x i8*]* %7, i32 0, i32 2
  store i8* getelementptr inbounds ([5 x i8]* @.str15, i32 0, i32 0), i8** %10
  %11 = getelementptr [6 x i8*]* %7, i32 0, i32 3
  store i8* getelementptr inbounds ([7 x i8]* @.str16, i32 0, i32 0), i8** %11
  %12 = getelementptr [6 x i8*]* %7, i32 0, i32 4
  store i8* getelementptr inbounds ([11 x i8]* @.str17, i32 0, i32 0), i8** %12
  %13 = getelementptr [6 x i8*]* %7, i32 0, i32 5
  store i8* getelementptr inbounds ([8 x i8]* @.str18, i32 0, i32 0), i8** %13
  store i32 10, i32* %maxCategoryLength, align 4
  store i32 1, i32* %i, align 4
  br label %14

; <label>:14                                      ; preds = %104, %0
  %15 = load i32* %i, align 4
  %16 = icmp slt i32 %15, 7
  br i1 %16, label %17, label %107

; <label>:17                                      ; preds = %14
  %18 = load i32* %i, align 4
  %19 = sext i32 %18 to i64
  %20 = load %struct.pb_Timer** %t, align 8
  %21 = getelementptr inbounds %struct.pb_Timer* %20, i64 %19
  %22 = call double @pb_GetElapsedTime(%struct.pb_Timer* %21)
  %23 = fcmp une double %22, 0.000000e+00
  br i1 %23, label %24, label %103

; <label>:24                                      ; preds = %17
  %25 = load i32* %i, align 4
  %26 = sub nsw i32 %25, 1
  %27 = sext i32 %26 to i64
  %28 = getelementptr inbounds [6 x i8*]* %categories, i32 0, i64 %27
  %29 = load i8** %28, align 8
  %30 = load i32* %i, align 4
  %31 = sext i32 %30 to i64
  %32 = load %struct.pb_Timer** %t, align 8
  %33 = getelementptr inbounds %struct.pb_Timer* %32, i64 %31
  %34 = call double @pb_GetElapsedTime(%struct.pb_Timer* %33)
  %35 = call i32 (i8*, ...)* @printf(i8* getelementptr inbounds ([10 x i8]* @.str1917, i32 0, i32 0), i32 10, i8* %29, double %34)
  %36 = load i32* %i, align 4
  %37 = sext i32 %36 to i64
  %38 = load %struct.pb_TimerSet** %1, align 8
  %39 = getelementptr inbounds %struct.pb_TimerSet* %38, i32 0, i32 5
  %40 = getelementptr inbounds [8 x %struct.pb_SubTimerList*]* %39, i32 0, i64 %37
  %41 = load %struct.pb_SubTimerList** %40, align 8
  %42 = icmp ne %struct.pb_SubTimerList* %41, null
  br i1 %42, label %43, label %102

; <label>:43                                      ; preds = %24
  %44 = load i32* %i, align 4
  %45 = sext i32 %44 to i64
  %46 = load %struct.pb_TimerSet** %1, align 8
  %47 = getelementptr inbounds %struct.pb_TimerSet* %46, i32 0, i32 5
  %48 = getelementptr inbounds [8 x %struct.pb_SubTimerList*]* %47, i32 0, i64 %45
  %49 = load %struct.pb_SubTimerList** %48, align 8
  %50 = getelementptr inbounds %struct.pb_SubTimerList* %49, i32 0, i32 1
  %51 = load %struct.pb_SubTimer** %50, align 8
  store %struct.pb_SubTimer* %51, %struct.pb_SubTimer** %sub, align 8
  store i32 0, i32* %maxSubLength, align 4
  br label %52

; <label>:52                                      ; preds = %69, %43
  %53 = load %struct.pb_SubTimer** %sub, align 8
  %54 = icmp ne %struct.pb_SubTimer* %53, null
  br i1 %54, label %55, label %73

; <label>:55                                      ; preds = %52
  %56 = load %struct.pb_SubTimer** %sub, align 8
  %57 = getelementptr inbounds %struct.pb_SubTimer* %56, i32 0, i32 0
  %58 = load i8** %57, align 8
  %59 = call i64 @strlen(i8* %58) #15
  %60 = load i32* %maxSubLength, align 4
  %61 = sext i32 %60 to i64
  %62 = icmp ugt i64 %59, %61
  br i1 %62, label %63, label %69

; <label>:63                                      ; preds = %55
  %64 = load %struct.pb_SubTimer** %sub, align 8
  %65 = getelementptr inbounds %struct.pb_SubTimer* %64, i32 0, i32 0
  %66 = load i8** %65, align 8
  %67 = call i64 @strlen(i8* %66) #15
  %68 = trunc i64 %67 to i32
  store i32 %68, i32* %maxSubLength, align 4
  br label %69

; <label>:69                                      ; preds = %63, %55
  %70 = load %struct.pb_SubTimer** %sub, align 8
  %71 = getelementptr inbounds %struct.pb_SubTimer* %70, i32 0, i32 2
  %72 = load %struct.pb_SubTimer** %71, align 8
  store %struct.pb_SubTimer* %72, %struct.pb_SubTimer** %sub, align 8
  br label %52

; <label>:73                                      ; preds = %52
  %74 = load i32* %maxSubLength, align 4
  %75 = icmp sle i32 %74, 10
  br i1 %75, label %76, label %77

; <label>:76                                      ; preds = %73
  store i32 10, i32* %maxSubLength, align 4
  br label %77

; <label>:77                                      ; preds = %76, %73
  %78 = load i32* %i, align 4
  %79 = sext i32 %78 to i64
  %80 = load %struct.pb_TimerSet** %1, align 8
  %81 = getelementptr inbounds %struct.pb_TimerSet* %80, i32 0, i32 5
  %82 = getelementptr inbounds [8 x %struct.pb_SubTimerList*]* %81, i32 0, i64 %79
  %83 = load %struct.pb_SubTimerList** %82, align 8
  %84 = getelementptr inbounds %struct.pb_SubTimerList* %83, i32 0, i32 1
  %85 = load %struct.pb_SubTimer** %84, align 8
  store %struct.pb_SubTimer* %85, %struct.pb_SubTimer** %sub, align 8
  br label %86

; <label>:86                                      ; preds = %89, %77
  %87 = load %struct.pb_SubTimer** %sub, align 8
  %88 = icmp ne %struct.pb_SubTimer* %87, null
  br i1 %88, label %89, label %101

; <label>:89                                      ; preds = %86
  %90 = load i32* %maxSubLength, align 4
  %91 = load %struct.pb_SubTimer** %sub, align 8
  %92 = getelementptr inbounds %struct.pb_SubTimer* %91, i32 0, i32 0
  %93 = load i8** %92, align 8
  %94 = load %struct.pb_SubTimer** %sub, align 8
  %95 = getelementptr inbounds %struct.pb_SubTimer* %94, i32 0, i32 1
  %96 = call double @pb_GetElapsedTime(%struct.pb_Timer* %95)
  %97 = call i32 (i8*, ...)* @printf(i8* getelementptr inbounds ([12 x i8]* @.str20, i32 0, i32 0), i32 %90, i8* %93, double %96)
  %98 = load %struct.pb_SubTimer** %sub, align 8
  %99 = getelementptr inbounds %struct.pb_SubTimer* %98, i32 0, i32 2
  %100 = load %struct.pb_SubTimer** %99, align 8
  store %struct.pb_SubTimer* %100, %struct.pb_SubTimer** %sub, align 8
  br label %86

; <label>:101                                     ; preds = %86
  br label %102

; <label>:102                                     ; preds = %101, %24
  br label %103

; <label>:103                                     ; preds = %102, %17
  br label %104

; <label>:104                                     ; preds = %103
  %105 = load i32* %i, align 4
  %106 = add nsw i32 %105, 1
  store i32 %106, i32* %i, align 4
  br label %14

; <label>:107                                     ; preds = %14
  %108 = load %struct.pb_Timer** %t, align 8
  %109 = getelementptr inbounds %struct.pb_Timer* %108, i64 7
  %110 = call double @pb_GetElapsedTime(%struct.pb_Timer* %109)
  %111 = fcmp une double %110, 0.000000e+00
  br i1 %111, label %112, label %117

; <label>:112                                     ; preds = %107
  %113 = load %struct.pb_Timer** %t, align 8
  %114 = getelementptr inbounds %struct.pb_Timer* %113, i64 7
  %115 = call double @pb_GetElapsedTime(%struct.pb_Timer* %114)
  %116 = call i32 (i8*, ...)* @printf(i8* getelementptr inbounds ([24 x i8]* @.str21, i32 0, i32 0), double %115)
  br label %117

; <label>:117                                     ; preds = %112, %107
  %118 = load i64* %wall_end, align 8
  %119 = load %struct.pb_TimerSet** %1, align 8
  %120 = getelementptr inbounds %struct.pb_TimerSet* %119, i32 0, i32 3
  %121 = load i64* %120, align 8
  %122 = sub i64 %118, %121
  %123 = uitofp i64 %122 to double
  %124 = fdiv double %123, 1.000000e+06
  %125 = fptrunc double %124 to float
  store float %125, float* %walltime, align 4
  %126 = load float* %walltime, align 4
  %127 = fpext float %126 to double
  %128 = call i32 (i8*, ...)* @printf(i8* getelementptr inbounds ([21 x i8]* @.str22, i32 0, i32 0), double %127)
  ret void
}

; Function Attrs: nounwind
declare void @llvm.memset.p0i8.i64(i8* nocapture, i8, i64, i32, i1) #1

; Function Attrs: nounwind uwtable
define void @pb_DestroyTimerSet(%struct.pb_TimerSet* %timers) #6 {
  %1 = alloca %struct.pb_TimerSet*, align 8
  %event = alloca %struct.pb_async_time_marker_list**, align 8
  %next = alloca %struct.pb_async_time_marker_list**, align 8
  %i = alloca i32, align 4
  %subtimer = alloca %struct.pb_SubTimer*, align 8
  %prev = alloca %struct.pb_SubTimer*, align 8
  store %struct.pb_TimerSet* %timers, %struct.pb_TimerSet** %1, align 8
  %2 = load %struct.pb_TimerSet** %1, align 8
  %3 = getelementptr inbounds %struct.pb_TimerSet* %2, i32 0, i32 1
  store %struct.pb_async_time_marker_list** %3, %struct.pb_async_time_marker_list*** %event, align 8
  br label %4

; <label>:4                                       ; preds = %8, %0
  %5 = load %struct.pb_async_time_marker_list*** %event, align 8
  %6 = load %struct.pb_async_time_marker_list** %5, align 8
  %7 = icmp ne %struct.pb_async_time_marker_list* %6, null
  br i1 %7, label %8, label %17

; <label>:8                                       ; preds = %4
  %9 = load %struct.pb_async_time_marker_list*** %event, align 8
  %10 = load %struct.pb_async_time_marker_list** %9, align 8
  %11 = getelementptr inbounds %struct.pb_async_time_marker_list* %10, i32 0, i32 3
  store %struct.pb_async_time_marker_list** %11, %struct.pb_async_time_marker_list*** %next, align 8
  %12 = load %struct.pb_async_time_marker_list*** %event, align 8
  %13 = load %struct.pb_async_time_marker_list** %12, align 8
  %14 = bitcast %struct.pb_async_time_marker_list* %13 to i8*
  call void @free(i8* %14) #1
  %15 = load %struct.pb_async_time_marker_list*** %event, align 8
  store %struct.pb_async_time_marker_list* null, %struct.pb_async_time_marker_list** %15, align 8
  %16 = load %struct.pb_async_time_marker_list*** %next, align 8
  store %struct.pb_async_time_marker_list** %16, %struct.pb_async_time_marker_list*** %event, align 8
  br label %4

; <label>:17                                      ; preds = %4
  store i32 0, i32* %i, align 4
  store i32 0, i32* %i, align 4
  br label %18

; <label>:18                                      ; preds = %60, %17
  %19 = load i32* %i, align 4
  %20 = icmp slt i32 %19, 8
  br i1 %20, label %21, label %63

; <label>:21                                      ; preds = %18
  %22 = load i32* %i, align 4
  %23 = sext i32 %22 to i64
  %24 = load %struct.pb_TimerSet** %1, align 8
  %25 = getelementptr inbounds %struct.pb_TimerSet* %24, i32 0, i32 5
  %26 = getelementptr inbounds [8 x %struct.pb_SubTimerList*]* %25, i32 0, i64 %23
  %27 = load %struct.pb_SubTimerList** %26, align 8
  %28 = icmp ne %struct.pb_SubTimerList* %27, null
  br i1 %28, label %29, label %59

; <label>:29                                      ; preds = %21
  %30 = load i32* %i, align 4
  %31 = sext i32 %30 to i64
  %32 = load %struct.pb_TimerSet** %1, align 8
  %33 = getelementptr inbounds %struct.pb_TimerSet* %32, i32 0, i32 5
  %34 = getelementptr inbounds [8 x %struct.pb_SubTimerList*]* %33, i32 0, i64 %31
  %35 = load %struct.pb_SubTimerList** %34, align 8
  %36 = getelementptr inbounds %struct.pb_SubTimerList* %35, i32 0, i32 1
  %37 = load %struct.pb_SubTimer** %36, align 8
  store %struct.pb_SubTimer* %37, %struct.pb_SubTimer** %subtimer, align 8
  store %struct.pb_SubTimer* null, %struct.pb_SubTimer** %prev, align 8
  br label %38

; <label>:38                                      ; preds = %41, %29
  %39 = load %struct.pb_SubTimer** %subtimer, align 8
  %40 = icmp ne %struct.pb_SubTimer* %39, null
  br i1 %40, label %41, label %51

; <label>:41                                      ; preds = %38
  %42 = load %struct.pb_SubTimer** %subtimer, align 8
  %43 = getelementptr inbounds %struct.pb_SubTimer* %42, i32 0, i32 0
  %44 = load i8** %43, align 8
  call void @free(i8* %44) #1
  %45 = load %struct.pb_SubTimer** %subtimer, align 8
  store %struct.pb_SubTimer* %45, %struct.pb_SubTimer** %prev, align 8
  %46 = load %struct.pb_SubTimer** %subtimer, align 8
  %47 = getelementptr inbounds %struct.pb_SubTimer* %46, i32 0, i32 2
  %48 = load %struct.pb_SubTimer** %47, align 8
  store %struct.pb_SubTimer* %48, %struct.pb_SubTimer** %subtimer, align 8
  %49 = load %struct.pb_SubTimer** %prev, align 8
  %50 = bitcast %struct.pb_SubTimer* %49 to i8*
  call void @free(i8* %50) #1
  br label %38

; <label>:51                                      ; preds = %38
  %52 = load i32* %i, align 4
  %53 = sext i32 %52 to i64
  %54 = load %struct.pb_TimerSet** %1, align 8
  %55 = getelementptr inbounds %struct.pb_TimerSet* %54, i32 0, i32 5
  %56 = getelementptr inbounds [8 x %struct.pb_SubTimerList*]* %55, i32 0, i64 %53
  %57 = load %struct.pb_SubTimerList** %56, align 8
  %58 = bitcast %struct.pb_SubTimerList* %57 to i8*
  call void @free(i8* %58) #1
  br label %59

; <label>:59                                      ; preds = %51, %21
  br label %60

; <label>:60                                      ; preds = %59
  %61 = load i32* %i, align 4
  %62 = add nsw i32 %61, 1
  store i32 %62, i32* %i, align 4
  br label %18

; <label>:63                                      ; preds = %18
  ret void
}

; Function Attrs: nounwind
declare void @llvm.memcpy.p0i8.p0i8.i64(i8* nocapture, i8* nocapture readonly, i64, i32, i1) #1

; Function Attrs: nounwind uwtable
define internal void @_ZL19initialize_argparseP8argparseiPPc(%struct.argparse* %ap, i32 %argc, i8** %argv) #6 {
  %1 = alloca %struct.argparse*, align 8
  %2 = alloca i32, align 4
  %3 = alloca i8**, align 8
  store %struct.argparse* %ap, %struct.argparse** %1, align 8
  store i32 %argc, i32* %2, align 4
  store i8** %argv, i8*** %3, align 8
  %4 = load i32* %2, align 4
  %5 = load %struct.argparse** %1, align 8
  %6 = getelementptr inbounds %struct.argparse* %5, i32 0, i32 0
  store i32 %4, i32* %6, align 4
  %7 = load %struct.argparse** %1, align 8
  %8 = getelementptr inbounds %struct.argparse* %7, i32 0, i32 2
  store i32 0, i32* %8, align 4
  %9 = load i8*** %3, align 8
  %10 = load %struct.argparse** %1, align 8
  %11 = getelementptr inbounds %struct.argparse* %10, i32 0, i32 1
  store i8** %9, i8*** %11, align 8
  %12 = load %struct.argparse** %1, align 8
  %13 = getelementptr inbounds %struct.argparse* %12, i32 0, i32 4
  store i8** %9, i8*** %13, align 8
  %14 = load %struct.argparse** %1, align 8
  %15 = getelementptr inbounds %struct.argparse* %14, i32 0, i32 3
  store i8** %9, i8*** %15, align 8
  ret void
}

; Function Attrs: nounwind uwtable
define internal i32 @_ZL19is_end_of_argumentsP8argparse(%struct.argparse* %ap) #6 {
  %1 = alloca %struct.argparse*, align 8
  store %struct.argparse* %ap, %struct.argparse** %1, align 8
  %2 = load %struct.argparse** %1, align 8
  %3 = getelementptr inbounds %struct.argparse* %2, i32 0, i32 2
  %4 = load i32* %3, align 4
  %5 = load %struct.argparse** %1, align 8
  %6 = getelementptr inbounds %struct.argparse* %5, i32 0, i32 0
  %7 = load i32* %6, align 4
  %8 = icmp eq i32 %4, %7
  %9 = zext i1 %8 to i32
  ret i32 %9
}

; Function Attrs: nounwind uwtable
define internal i8* @_ZL12get_argumentP8argparse(%struct.argparse* %ap) #6 {
  %1 = alloca %struct.argparse*, align 8
  store %struct.argparse* %ap, %struct.argparse** %1, align 8
  %2 = load %struct.argparse** %1, align 8
  %3 = getelementptr inbounds %struct.argparse* %2, i32 0, i32 3
  %4 = load i8*** %3, align 8
  %5 = load i8** %4, align 8
  ret i8* %5
}

; Function Attrs: uwtable
define internal void @_ZL15delete_argumentP8argparse(%struct.argparse* %ap) #2 {
  %1 = alloca %struct.argparse*, align 8
  store %struct.argparse* %ap, %struct.argparse** %1, align 8
  %2 = load %struct.argparse** %1, align 8
  %3 = getelementptr inbounds %struct.argparse* %2, i32 0, i32 2
  %4 = load i32* %3, align 4
  %5 = load %struct.argparse** %1, align 8
  %6 = getelementptr inbounds %struct.argparse* %5, i32 0, i32 0
  %7 = load i32* %6, align 4
  %8 = icmp sge i32 %4, %7
  br i1 %8, label %9, label %12

; <label>:9                                       ; preds = %0
  %10 = load %struct._IO_FILE** @stderr, align 8
  %11 = call i32 (%struct._IO_FILE*, i8*, ...)* @fprintf(%struct._IO_FILE* %10, i8* getelementptr inbounds ([17 x i8]* @.str24, i32 0, i32 0))
  br label %12

; <label>:12                                      ; preds = %9, %0
  %13 = load %struct.argparse** %1, align 8
  %14 = getelementptr inbounds %struct.argparse* %13, i32 0, i32 0
  %15 = load i32* %14, align 4
  %16 = add nsw i32 %15, -1
  store i32 %16, i32* %14, align 4
  %17 = load %struct.argparse** %1, align 8
  %18 = getelementptr inbounds %struct.argparse* %17, i32 0, i32 3
  %19 = load i8*** %18, align 8
  %20 = getelementptr inbounds i8** %19, i32 1
  store i8** %20, i8*** %18, align 8
  ret void
}

; Function Attrs: uwtable
define internal i8* @_ZL16consume_argumentP8argparse(%struct.argparse* %ap) #2 {
  %1 = alloca %struct.argparse*, align 8
  %ret = alloca i8*, align 8
  store %struct.argparse* %ap, %struct.argparse** %1, align 8
  %2 = load %struct.argparse** %1, align 8
  %3 = call i8* @_ZL12get_argumentP8argparse(%struct.argparse* %2)
  store i8* %3, i8** %ret, align 8
  %4 = load %struct.argparse** %1, align 8
  call void @_ZL15delete_argumentP8argparse(%struct.argparse* %4)
  %5 = load i8** %ret, align 8
  ret i8* %5
}

; Function Attrs: nounwind uwtable
define internal i8** @_ZL17read_string_arrayPc(i8* %in) #6 {
  %1 = alloca i8*, align 8
  %ret = alloca i8**, align 8
  %i = alloca i32, align 4
  %count = alloca i32, align 4
  %substring = alloca i8*, align 8
  %substring_end = alloca i8*, align 8
  %substring_length = alloca i32, align 4
  store i8* %in, i8** %1, align 8
  store i32 1, i32* %count, align 4
  store i32 0, i32* %i, align 4
  br label %2

; <label>:2                                       ; preds = %21, %0
  %3 = load i32* %i, align 4
  %4 = sext i32 %3 to i64
  %5 = load i8** %1, align 8
  %6 = getelementptr inbounds i8* %5, i64 %4
  %7 = load i8* %6, align 1
  %8 = icmp ne i8 %7, 0
  br i1 %8, label %9, label %24

; <label>:9                                       ; preds = %2
  %10 = load i32* %i, align 4
  %11 = sext i32 %10 to i64
  %12 = load i8** %1, align 8
  %13 = getelementptr inbounds i8* %12, i64 %11
  %14 = load i8* %13, align 1
  %15 = sext i8 %14 to i32
  %16 = icmp eq i32 %15, 44
  br i1 %16, label %17, label %20

; <label>:17                                      ; preds = %9
  %18 = load i32* %count, align 4
  %19 = add nsw i32 %18, 1
  store i32 %19, i32* %count, align 4
  br label %20

; <label>:20                                      ; preds = %17, %9
  br label %21

; <label>:21                                      ; preds = %20
  %22 = load i32* %i, align 4
  %23 = add nsw i32 %22, 1
  store i32 %23, i32* %i, align 4
  br label %2

; <label>:24                                      ; preds = %2
  %25 = load i32* %count, align 4
  %26 = add nsw i32 %25, 1
  %27 = sext i32 %26 to i64
  %28 = mul i64 %27, 8
  %29 = call noalias i8* @malloc(i64 %28) #1
  %30 = bitcast i8* %29 to i8**
  store i8** %30, i8*** %ret, align 8
  %31 = load i8** %1, align 8
  store i8* %31, i8** %substring, align 8
  store i32 0, i32* %i, align 4
  br label %32

; <label>:32                                      ; preds = %85, %24
  %33 = load i32* %i, align 4
  %34 = load i32* %count, align 4
  %35 = icmp slt i32 %33, %34
  br i1 %35, label %36, label %88

; <label>:36                                      ; preds = %32
  %37 = load i8** %substring, align 8
  store i8* %37, i8** %substring_end, align 8
  br label %38

; <label>:38                                      ; preds = %49, %36
  %39 = load i8** %substring_end, align 8
  %40 = load i8* %39, align 1
  %41 = sext i8 %40 to i32
  %42 = icmp ne i32 %41, 44
  br i1 %42, label %43, label %52

; <label>:43                                      ; preds = %38
  %44 = load i8** %substring_end, align 8
  %45 = load i8* %44, align 1
  %46 = sext i8 %45 to i32
  %47 = icmp ne i32 %46, 0
  br i1 %47, label %48, label %52

; <label>:48                                      ; preds = %43
  br label %49

; <label>:49                                      ; preds = %48
  %50 = load i8** %substring_end, align 8
  %51 = getelementptr inbounds i8* %50, i32 1
  store i8* %51, i8** %substring_end, align 8
  br label %38

; <label>:52                                      ; preds = %43, %38
  %53 = load i8** %substring_end, align 8
  %54 = load i8** %substring, align 8
  %55 = ptrtoint i8* %53 to i64
  %56 = ptrtoint i8* %54 to i64
  %57 = sub i64 %55, %56
  %58 = trunc i64 %57 to i32
  store i32 %58, i32* %substring_length, align 4
  %59 = load i32* %substring_length, align 4
  %60 = add nsw i32 %59, 1
  %61 = sext i32 %60 to i64
  %62 = call noalias i8* @malloc(i64 %61) #1
  %63 = load i32* %i, align 4
  %64 = sext i32 %63 to i64
  %65 = load i8*** %ret, align 8
  %66 = getelementptr inbounds i8** %65, i64 %64
  store i8* %62, i8** %66, align 8
  %67 = load i32* %i, align 4
  %68 = sext i32 %67 to i64
  %69 = load i8*** %ret, align 8
  %70 = getelementptr inbounds i8** %69, i64 %68
  %71 = load i8** %70, align 8
  %72 = load i8** %substring, align 8
  %73 = load i32* %substring_length, align 4
  %74 = sext i32 %73 to i64
  call void @llvm.memcpy.p0i8.p0i8.i64(i8* %71, i8* %72, i64 %74, i32 1, i1 false)
  %75 = load i32* %substring_length, align 4
  %76 = sext i32 %75 to i64
  %77 = load i32* %i, align 4
  %78 = sext i32 %77 to i64
  %79 = load i8*** %ret, align 8
  %80 = getelementptr inbounds i8** %79, i64 %78
  %81 = load i8** %80, align 8
  %82 = getelementptr inbounds i8* %81, i64 %76
  store i8 0, i8* %82, align 1
  %83 = load i8** %substring_end, align 8
  %84 = getelementptr inbounds i8* %83, i64 1
  store i8* %84, i8** %substring, align 8
  br label %85

; <label>:85                                      ; preds = %52
  %86 = load i32* %i, align 4
  %87 = add nsw i32 %86, 1
  store i32 %87, i32* %i, align 4
  br label %32

; <label>:88                                      ; preds = %32
  %89 = load i32* %i, align 4
  %90 = sext i32 %89 to i64
  %91 = load i8*** %ret, align 8
  %92 = getelementptr inbounds i8** %91, i64 %90
  store i8* null, i8** %92, align 8
  %93 = load i8*** %ret, align 8
  ret i8** %93
}

; Function Attrs: uwtable
define internal void @_ZL13next_argumentP8argparse(%struct.argparse* %ap) #2 {
  %1 = alloca %struct.argparse*, align 8
  store %struct.argparse* %ap, %struct.argparse** %1, align 8
  %2 = load %struct.argparse** %1, align 8
  %3 = getelementptr inbounds %struct.argparse* %2, i32 0, i32 2
  %4 = load i32* %3, align 4
  %5 = load %struct.argparse** %1, align 8
  %6 = getelementptr inbounds %struct.argparse* %5, i32 0, i32 0
  %7 = load i32* %6, align 4
  %8 = icmp sge i32 %4, %7
  br i1 %8, label %9, label %12

; <label>:9                                       ; preds = %0
  %10 = load %struct._IO_FILE** @stderr, align 8
  %11 = call i32 (%struct._IO_FILE*, i8*, ...)* @fprintf(%struct._IO_FILE* %10, i8* getelementptr inbounds ([15 x i8]* @.str23, i32 0, i32 0))
  br label %12

; <label>:12                                      ; preds = %9, %0
  %13 = load %struct.argparse** %1, align 8
  %14 = getelementptr inbounds %struct.argparse* %13, i32 0, i32 3
  %15 = load i8*** %14, align 8
  %16 = getelementptr inbounds i8** %15, i32 1
  store i8** %16, i8*** %14, align 8
  %17 = load i8** %15, align 8
  %18 = load %struct.argparse** %1, align 8
  %19 = getelementptr inbounds %struct.argparse* %18, i32 0, i32 4
  %20 = load i8*** %19, align 8
  %21 = getelementptr inbounds i8** %20, i32 1
  store i8** %21, i8*** %19, align 8
  store i8* %17, i8** %20, align 8
  %22 = load %struct.argparse** %1, align 8
  %23 = getelementptr inbounds %struct.argparse* %22, i32 0, i32 2
  %24 = load i32* %23, align 4
  %25 = add nsw i32 %24, 1
  store i32 %25, i32* %23, align 4
  ret void
}

; Function Attrs: nounwind uwtable
define internal void @_ZL17finalize_argparseP8argparse(%struct.argparse* %ap) #6 {
  %1 = alloca %struct.argparse*, align 8
  store %struct.argparse* %ap, %struct.argparse** %1, align 8
  br label %2

; <label>:2                                       ; preds = %20, %0
  %3 = load %struct.argparse** %1, align 8
  %4 = getelementptr inbounds %struct.argparse* %3, i32 0, i32 2
  %5 = load i32* %4, align 4
  %6 = load %struct.argparse** %1, align 8
  %7 = getelementptr inbounds %struct.argparse* %6, i32 0, i32 0
  %8 = load i32* %7, align 4
  %9 = icmp slt i32 %5, %8
  br i1 %9, label %10, label %25

; <label>:10                                      ; preds = %2
  %11 = load %struct.argparse** %1, align 8
  %12 = getelementptr inbounds %struct.argparse* %11, i32 0, i32 3
  %13 = load i8*** %12, align 8
  %14 = getelementptr inbounds i8** %13, i32 1
  store i8** %14, i8*** %12, align 8
  %15 = load i8** %13, align 8
  %16 = load %struct.argparse** %1, align 8
  %17 = getelementptr inbounds %struct.argparse* %16, i32 0, i32 4
  %18 = load i8*** %17, align 8
  %19 = getelementptr inbounds i8** %18, i32 1
  store i8** %19, i8*** %17, align 8
  store i8* %15, i8** %18, align 8
  br label %20

; <label>:20                                      ; preds = %10
  %21 = load %struct.argparse** %1, align 8
  %22 = getelementptr inbounds %struct.argparse* %21, i32 0, i32 2
  %23 = load i32* %22, align 4
  %24 = add nsw i32 %23, 1
  store i32 %24, i32* %22, align 4
  br label %2

; <label>:25                                      ; preds = %2
  ret void
}

; Function Attrs: nounwind uwtable
define internal void @_ZL17free_string_arrayPPc(i8** %string_array) #6 {
  %1 = alloca i8**, align 8
  %p = alloca i8**, align 8
  store i8** %string_array, i8*** %1, align 8
  %2 = load i8*** %1, align 8
  %3 = icmp ne i8** %2, null
  br i1 %3, label %5, label %4

; <label>:4                                       ; preds = %0
  br label %20

; <label>:5                                       ; preds = %0
  %6 = load i8*** %1, align 8
  store i8** %6, i8*** %p, align 8
  br label %7

; <label>:7                                       ; preds = %14, %5
  %8 = load i8*** %p, align 8
  %9 = load i8** %8, align 8
  %10 = icmp ne i8* %9, null
  br i1 %10, label %11, label %17

; <label>:11                                      ; preds = %7
  %12 = load i8*** %p, align 8
  %13 = load i8** %12, align 8
  call void @free(i8* %13) #1
  br label %14

; <label>:14                                      ; preds = %11
  %15 = load i8*** %p, align 8
  %16 = getelementptr inbounds i8** %15, i32 1
  store i8** %16, i8*** %p, align 8
  br label %7

; <label>:17                                      ; preds = %7
  %18 = load i8*** %1, align 8
  %19 = bitcast i8** %18 to i8*
  call void @free(i8* %19) #1
  br label %20

; <label>:20                                      ; preds = %17, %4
  ret void
}

; Function Attrs: nounwind uwtable
define internal void @_ZL15accumulate_timePyyy(i64* %accum, i64 %start, i64 %end) #6 {
  %1 = alloca i64*, align 8
  %2 = alloca i64, align 8
  %3 = alloca i64, align 8
  store i64* %accum, i64** %1, align 8
  store i64 %start, i64* %2, align 8
  store i64 %end, i64* %3, align 8
  %4 = load i64* %3, align 8
  %5 = load i64* %2, align 8
  %6 = sub i64 %4, %5
  %7 = load i64** %1, align 8
  %8 = load i64* %7, align 8
  %9 = add i64 %8, %6
  store i64 %9, i64* %7, align 8
  ret void
}

; Function Attrs: nounwind uwtable
define internal i64 @_ZL8get_timev() #6 {
  %tv = alloca %struct.timeval, align 8
  %1 = call i32 @gettimeofday(%struct.timeval* %tv, %struct.timezone* null) #1
  %2 = getelementptr inbounds %struct.timeval* %tv, i32 0, i32 0
  %3 = load i64* %2, align 8
  %4 = mul nsw i64 %3, 1000000
  %5 = getelementptr inbounds %struct.timeval* %tv, i32 0, i32 1
  %6 = load i64* %5, align 8
  %7 = add nsw i64 %4, %6
  ret i64 %7
}

attributes #0 = { "less-precise-fpmad"="false" "no-frame-pointer-elim"="true" "no-frame-pointer-elim-non-leaf" "no-infs-fp-math"="false" "no-nans-fp-math"="false" "stack-protector-buffer-size"="8" "unsafe-fp-math"="false" "use-soft-float"="false" }
attributes #1 = { nounwind }
attributes #2 = { uwtable "less-precise-fpmad"="false" "no-frame-pointer-elim"="true" "no-frame-pointer-elim-non-leaf" "no-infs-fp-math"="false" "no-nans-fp-math"="false" "stack-protector-buffer-size"="8" "unsafe-fp-math"="false" "use-soft-float"="false" }
attributes #3 = { noinline noreturn nounwind }
attributes #4 = { noreturn nounwind "less-precise-fpmad"="false" "no-frame-pointer-elim"="true" "no-frame-pointer-elim-non-leaf" "no-infs-fp-math"="false" "no-nans-fp-math"="false" "stack-protector-buffer-size"="8" "unsafe-fp-math"="false" "use-soft-float"="false" }
attributes #5 = { nounwind "less-precise-fpmad"="false" "no-frame-pointer-elim"="true" "no-frame-pointer-elim-non-leaf" "no-infs-fp-math"="false" "no-nans-fp-math"="false" "stack-protector-buffer-size"="8" "unsafe-fp-math"="false" "use-soft-float"="false" }
attributes #6 = { nounwind uwtable "less-precise-fpmad"="false" "no-frame-pointer-elim"="true" "no-frame-pointer-elim-non-leaf" "no-infs-fp-math"="false" "no-nans-fp-math"="false" "stack-protector-buffer-size"="8" "unsafe-fp-math"="false" "use-soft-float"="false" }
attributes #7 = { inlinehint nounwind uwtable "less-precise-fpmad"="false" "no-frame-pointer-elim"="true" "no-frame-pointer-elim-non-leaf" "no-infs-fp-math"="false" "no-nans-fp-math"="false" "stack-protector-buffer-size"="8" "unsafe-fp-math"="false" "use-soft-float"="false" }
attributes #8 = { nobuiltin nounwind "less-precise-fpmad"="false" "no-frame-pointer-elim"="true" "no-frame-pointer-elim-non-leaf" "no-infs-fp-math"="false" "no-nans-fp-math"="false" "stack-protector-buffer-size"="8" "unsafe-fp-math"="false" "use-soft-float"="false" }
attributes #9 = { noreturn "less-precise-fpmad"="false" "no-frame-pointer-elim"="true" "no-frame-pointer-elim-non-leaf" "no-infs-fp-math"="false" "no-nans-fp-math"="false" "stack-protector-buffer-size"="8" "unsafe-fp-math"="false" "use-soft-float"="false" }
attributes #10 = { nobuiltin "less-precise-fpmad"="false" "no-frame-pointer-elim"="true" "no-frame-pointer-elim-non-leaf" "no-infs-fp-math"="false" "no-nans-fp-math"="false" "stack-protector-buffer-size"="8" "unsafe-fp-math"="false" "use-soft-float"="false" }
attributes #11 = { inlinehint uwtable "less-precise-fpmad"="false" "no-frame-pointer-elim"="true" "no-frame-pointer-elim-non-leaf" "no-infs-fp-math"="false" "no-nans-fp-math"="false" "stack-protector-buffer-size"="8" "unsafe-fp-math"="false" "use-soft-float"="false" }
attributes #12 = { nounwind readonly "less-precise-fpmad"="false" "no-frame-pointer-elim"="true" "no-frame-pointer-elim-non-leaf" "no-infs-fp-math"="false" "no-nans-fp-math"="false" "stack-protector-buffer-size"="8" "unsafe-fp-math"="false" "use-soft-float"="false" }
attributes #13 = { noreturn nounwind }
attributes #14 = { noreturn }
attributes #15 = { nounwind readonly }

!llvm.ident = !{!0, !0}

!0 = metadata !{metadata !"clang version 3.4 (tags/RELEASE_34/final)"}
